In archive libChecker.a:

CheckerAPIs.o:     file format elf32-littlearm


Disassembly of section .text:

00000000 <_ZL20__gthread_key_deletei>:
   0:	b480      	push	{r7}
   2:	b083      	sub	sp, #12
   4:	af00      	add	r7, sp, #0
   6:	6078      	str	r0, [r7, #4]
   8:	2300      	movs	r3, #0
   a:	4618      	mov	r0, r3
   c:	370c      	adds	r7, #12
   e:	46bd      	mov	sp, r7
  10:	f85d 7b04 	ldr.w	r7, [sp], #4
  14:	4770      	bx	lr
  16:	bf00      	nop

00000018 <_Z27generate_return_point_stackv>:
  18:	b5b0      	push	{r4, r5, r7, lr}
  1a:	b08a      	sub	sp, #40	; 0x28
  1c:	af00      	add	r7, sp, #0
  1e:	463b      	mov	r3, r7
  20:	4618      	mov	r0, r3
  22:	f7ff fffe 	bl	0 <_ZL20__gthread_key_deletei>
  26:	463d      	mov	r5, r7
  28:	2028      	movs	r0, #40	; 0x28
  2a:	f7ff fffe 	bl	0 <_Znwj>
  2e:	4604      	mov	r4, r0
  30:	4620      	mov	r0, r4
  32:	4629      	mov	r1, r5
  34:	f7ff fffe 	bl	0 <_ZL20__gthread_key_deletei>
  38:	4b0a      	ldr	r3, [pc, #40]	; (64 <_Z27generate_return_point_stackv+0x4c>)
  3a:	601c      	str	r4, [r3, #0]
  3c:	463b      	mov	r3, r7
  3e:	4618      	mov	r0, r3
  40:	f7ff fffe 	bl	0 <_ZL20__gthread_key_deletei>
  44:	2301      	movs	r3, #1
  46:	e009      	b.n	5c <_Z27generate_return_point_stackv+0x44>
  48:	4620      	mov	r0, r4
  4a:	f7ff fffe 	bl	0 <_ZdlPv>
  4e:	e7ff      	b.n	50 <_Z27generate_return_point_stackv+0x38>
  50:	463b      	mov	r3, r7
  52:	4618      	mov	r0, r3
  54:	f7ff fffe 	bl	0 <_ZL20__gthread_key_deletei>
  58:	f7ff fffe 	bl	0 <__cxa_end_cleanup>
  5c:	4618      	mov	r0, r3
  5e:	3728      	adds	r7, #40	; 0x28
  60:	46bd      	mov	sp, r7
  62:	bdb0      	pop	{r4, r5, r7, pc}
  64:	00000000 	.word	0x00000000

00000068 <_Z14add_basicblockPSt3mapIjP6BBInfoSt4lessIjESaISt4pairIKjS1_EEEjjjj>:
  68:	b590      	push	{r4, r7, lr}
  6a:	b08f      	sub	sp, #60	; 0x3c
  6c:	af02      	add	r7, sp, #8
  6e:	60f8      	str	r0, [r7, #12]
  70:	60b9      	str	r1, [r7, #8]
  72:	607a      	str	r2, [r7, #4]
  74:	603b      	str	r3, [r7, #0]
  76:	2010      	movs	r0, #16
  78:	f7ff fffe 	bl	0 <_Znwj>
  7c:	4604      	mov	r4, r0
  7e:	6c3b      	ldr	r3, [r7, #64]	; 0x40
  80:	9300      	str	r3, [sp, #0]
  82:	4620      	mov	r0, r4
  84:	68b9      	ldr	r1, [r7, #8]
  86:	687a      	ldr	r2, [r7, #4]
  88:	683b      	ldr	r3, [r7, #0]
  8a:	f7ff fffe 	bl	0 <_ZL20__gthread_key_deletei>
  8e:	62fc      	str	r4, [r7, #44]	; 0x2c
  90:	f107 0324 	add.w	r3, r7, #36	; 0x24
  94:	4618      	mov	r0, r3
  96:	68b9      	ldr	r1, [r7, #8]
  98:	6afa      	ldr	r2, [r7, #44]	; 0x2c
  9a:	f7ff fffe 	bl	0 <_ZL20__gthread_key_deletei>
  9e:	f107 021c 	add.w	r2, r7, #28
  a2:	f107 0324 	add.w	r3, r7, #36	; 0x24
  a6:	4610      	mov	r0, r2
  a8:	4619      	mov	r1, r3
  aa:	f7ff fffe 	bl	0 <_ZL20__gthread_key_deletei>
  ae:	f107 0214 	add.w	r2, r7, #20
  b2:	f107 031c 	add.w	r3, r7, #28
  b6:	4610      	mov	r0, r2
  b8:	68f9      	ldr	r1, [r7, #12]
  ba:	461a      	mov	r2, r3
  bc:	f7ff fffe 	bl	0 <_ZL20__gthread_key_deletei>
  c0:	3734      	adds	r7, #52	; 0x34
  c2:	46bd      	mov	sp, r7
  c4:	bd90      	pop	{r4, r7, pc}
  c6:	bf00      	nop

000000c8 <checker>:
  c8:	b580      	push	{r7, lr}
  ca:	b082      	sub	sp, #8
  cc:	af00      	add	r7, sp, #0
  ce:	2300      	movs	r3, #0
  d0:	607b      	str	r3, [r7, #4]
  d2:	e009      	b.n	e8 <checker+0x20>
  d4:	6878      	ldr	r0, [r7, #4]
  d6:	f7ff fffe 	bl	118 <_Z15deque_sig_queuej>
  da:	6038      	str	r0, [r7, #0]
  dc:	6838      	ldr	r0, [r7, #0]
  de:	f7ff fffe 	bl	13c <_Z15checker_routinej>
  e2:	687b      	ldr	r3, [r7, #4]
  e4:	3301      	adds	r3, #1
  e6:	607b      	str	r3, [r7, #4]
  e8:	4b04      	ldr	r3, [pc, #16]	; (fc <checker+0x34>)
  ea:	681b      	ldr	r3, [r3, #0]
  ec:	687a      	ldr	r2, [r7, #4]
  ee:	429a      	cmp	r2, r3
  f0:	d3f0      	bcc.n	d4 <checker+0xc>
  f2:	f7ff fffe 	bl	100 <_Z15reset_sig_queuev>
  f6:	3708      	adds	r7, #8
  f8:	46bd      	mov	sp, r7
  fa:	bd80      	pop	{r7, pc}
  fc:	00000000 	.word	0x00000000

00000100 <_Z15reset_sig_queuev>:
 100:	b480      	push	{r7}
 102:	af00      	add	r7, sp, #0
 104:	4b03      	ldr	r3, [pc, #12]	; (114 <_Z15reset_sig_queuev+0x14>)
 106:	2200      	movs	r2, #0
 108:	601a      	str	r2, [r3, #0]
 10a:	46bd      	mov	sp, r7
 10c:	f85d 7b04 	ldr.w	r7, [sp], #4
 110:	4770      	bx	lr
 112:	bf00      	nop
 114:	00000000 	.word	0x00000000

00000118 <_Z15deque_sig_queuej>:
 118:	b480      	push	{r7}
 11a:	b085      	sub	sp, #20
 11c:	af00      	add	r7, sp, #0
 11e:	6078      	str	r0, [r7, #4]
 120:	4a05      	ldr	r2, [pc, #20]	; (138 <_Z15deque_sig_queuej+0x20>)
 122:	687b      	ldr	r3, [r7, #4]
 124:	f852 3023 	ldr.w	r3, [r2, r3, lsl #2]
 128:	60fb      	str	r3, [r7, #12]
 12a:	68fb      	ldr	r3, [r7, #12]
 12c:	4618      	mov	r0, r3
 12e:	3714      	adds	r7, #20
 130:	46bd      	mov	sp, r7
 132:	f85d 7b04 	ldr.w	r7, [sp], #4
 136:	4770      	bx	lr
 138:	00000000 	.word	0x00000000

0000013c <_Z15checker_routinej>:
 13c:	b580      	push	{r7, lr}
 13e:	b086      	sub	sp, #24
 140:	af00      	add	r7, sp, #0
 142:	6078      	str	r0, [r7, #4]
 144:	4b25      	ldr	r3, [pc, #148]	; (1dc <_Z15checker_routinej+0xa0>)
 146:	781b      	ldrb	r3, [r3, #0]
 148:	2b00      	cmp	r3, #0
 14a:	d017      	beq.n	17c <_Z15checker_routinej+0x40>
 14c:	4b24      	ldr	r3, [pc, #144]	; (1e0 <_Z15checker_routinej+0xa4>)
 14e:	681a      	ldr	r2, [r3, #0]
 150:	2301      	movs	r3, #1
 152:	60fb      	str	r3, [r7, #12]
 154:	f107 030c 	add.w	r3, r7, #12
 158:	4610      	mov	r0, r2
 15a:	4619      	mov	r1, r3
 15c:	f7ff fffe 	bl	0 <_ZL20__gthread_key_deletei>
 160:	4603      	mov	r3, r0
 162:	60bb      	str	r3, [r7, #8]
 164:	f107 0308 	add.w	r3, r7, #8
 168:	4618      	mov	r0, r3
 16a:	f7ff fffe 	bl	0 <_ZL20__gthread_key_deletei>
 16e:	4603      	mov	r3, r0
 170:	685b      	ldr	r3, [r3, #4]
 172:	4a1c      	ldr	r2, [pc, #112]	; (1e4 <_Z15checker_routinej+0xa8>)
 174:	6013      	str	r3, [r2, #0]
 176:	4b19      	ldr	r3, [pc, #100]	; (1dc <_Z15checker_routinej+0xa0>)
 178:	2200      	movs	r2, #0
 17a:	701a      	strb	r2, [r3, #0]
 17c:	4b18      	ldr	r3, [pc, #96]	; (1e0 <_Z15checker_routinej+0xa4>)
 17e:	681b      	ldr	r3, [r3, #0]
 180:	4618      	mov	r0, r3
 182:	6879      	ldr	r1, [r7, #4]
 184:	4a17      	ldr	r2, [pc, #92]	; (1e4 <_Z15checker_routinej+0xa8>)
 186:	f7ff fffe 	bl	1f4 <_Z22if_has_connection_movePSt3mapIjP6BBInfoSt4lessIjESaISt4pairIKjS1_EEEjPS1_>
 18a:	4603      	mov	r3, r0
 18c:	2b00      	cmp	r3, #0
 18e:	d000      	beq.n	192 <_Z15checker_routinej+0x56>
 190:	e020      	b.n	1d4 <_Z15checker_routinej+0x98>
 192:	4b13      	ldr	r3, [pc, #76]	; (1e0 <_Z15checker_routinej+0xa4>)
 194:	681a      	ldr	r2, [r3, #0]
 196:	2301      	movs	r3, #1
 198:	617b      	str	r3, [r7, #20]
 19a:	f107 0314 	add.w	r3, r7, #20
 19e:	4610      	mov	r0, r2
 1a0:	4619      	mov	r1, r3
 1a2:	f7ff fffe 	bl	0 <_ZL20__gthread_key_deletei>
 1a6:	4603      	mov	r3, r0
 1a8:	613b      	str	r3, [r7, #16]
 1aa:	f107 0310 	add.w	r3, r7, #16
 1ae:	4618      	mov	r0, r3
 1b0:	f7ff fffe 	bl	0 <_ZL20__gthread_key_deletei>
 1b4:	4603      	mov	r3, r0
 1b6:	685b      	ldr	r3, [r3, #4]
 1b8:	4a0a      	ldr	r2, [pc, #40]	; (1e4 <_Z15checker_routinej+0xa8>)
 1ba:	6013      	str	r3, [r2, #0]
 1bc:	f7ff fffe 	bl	100 <_Z15reset_sig_queuev>
 1c0:	4809      	ldr	r0, [pc, #36]	; (1e8 <_Z15checker_routinej+0xac>)
 1c2:	490a      	ldr	r1, [pc, #40]	; (1ec <_Z15checker_routinej+0xb0>)
 1c4:	f7ff fffe 	bl	0 <_ZStlsISt11char_traitsIcEERSt13basic_ostreamIcT_ES5_PKc>
 1c8:	4603      	mov	r3, r0
 1ca:	4618      	mov	r0, r3
 1cc:	4908      	ldr	r1, [pc, #32]	; (1f0 <_Z15checker_routinej+0xb4>)
 1ce:	f7ff fffe 	bl	0 <_ZNSolsEPFRSoS_E>
 1d2:	bf00      	nop
 1d4:	3718      	adds	r7, #24
 1d6:	46bd      	mov	sp, r7
 1d8:	bd80      	pop	{r7, pc}
 1da:	bf00      	nop
 1dc:	00000001 	.word	0x00000001
 1e0:	00000000 	.word	0x00000000
 1e4:	0000000c 	.word	0x0000000c
	...

000001f4 <_Z22if_has_connection_movePSt3mapIjP6BBInfoSt4lessIjESaISt4pairIKjS1_EEEjPS1_>:
 1f4:	b580      	push	{r7, lr}
 1f6:	b086      	sub	sp, #24
 1f8:	af00      	add	r7, sp, #0
 1fa:	60f8      	str	r0, [r7, #12]
 1fc:	60b9      	str	r1, [r7, #8]
 1fe:	607a      	str	r2, [r7, #4]
 200:	687b      	ldr	r3, [r7, #4]
 202:	681b      	ldr	r3, [r3, #0]
 204:	685b      	ldr	r3, [r3, #4]
 206:	2b00      	cmp	r3, #0
 208:	d12b      	bne.n	262 <_Z22if_has_connection_movePSt3mapIjP6BBInfoSt4lessIjESaISt4pairIKjS1_EEEjPS1_+0x6e>
 20a:	4b4b      	ldr	r3, [pc, #300]	; (338 <_Z22if_has_connection_movePSt3mapIjP6BBInfoSt4lessIjESaISt4pairIKjS1_EEEjPS1_+0x144>)
 20c:	681b      	ldr	r3, [r3, #0]
 20e:	4618      	mov	r0, r3
 210:	f7ff fffe 	bl	0 <_ZL20__gthread_key_deletei>
 214:	4603      	mov	r3, r0
 216:	681b      	ldr	r3, [r3, #0]
 218:	617b      	str	r3, [r7, #20]
 21a:	4b47      	ldr	r3, [pc, #284]	; (338 <_Z22if_has_connection_movePSt3mapIjP6BBInfoSt4lessIjESaISt4pairIKjS1_EEEjPS1_+0x144>)
 21c:	681b      	ldr	r3, [r3, #0]
 21e:	4618      	mov	r0, r3
 220:	f7ff fffe 	bl	0 <_ZL20__gthread_key_deletei>
 224:	4845      	ldr	r0, [pc, #276]	; (33c <_Z22if_has_connection_movePSt3mapIjP6BBInfoSt4lessIjESaISt4pairIKjS1_EEEjPS1_+0x148>)
 226:	4946      	ldr	r1, [pc, #280]	; (340 <_Z22if_has_connection_movePSt3mapIjP6BBInfoSt4lessIjESaISt4pairIKjS1_EEEjPS1_+0x14c>)
 228:	f7ff fffe 	bl	0 <_ZStlsISt11char_traitsIcEERSt13basic_ostreamIcT_ES5_PKc>
 22c:	4843      	ldr	r0, [pc, #268]	; (33c <_Z22if_has_connection_movePSt3mapIjP6BBInfoSt4lessIjESaISt4pairIKjS1_EEEjPS1_+0x148>)
 22e:	4945      	ldr	r1, [pc, #276]	; (344 <_Z22if_has_connection_movePSt3mapIjP6BBInfoSt4lessIjESaISt4pairIKjS1_EEEjPS1_+0x150>)
 230:	f7ff fffe 	bl	0 <_ZNSolsEPFRSt8ios_baseS0_E>
 234:	4603      	mov	r3, r0
 236:	4618      	mov	r0, r3
 238:	6979      	ldr	r1, [r7, #20]
 23a:	f7ff fffe 	bl	0 <_ZNSolsEj>
 23e:	4603      	mov	r3, r0
 240:	4618      	mov	r0, r3
 242:	4941      	ldr	r1, [pc, #260]	; (348 <_Z22if_has_connection_movePSt3mapIjP6BBInfoSt4lessIjESaISt4pairIKjS1_EEEjPS1_+0x154>)
 244:	f7ff fffe 	bl	0 <_ZNSolsEPFRSoS_E>
 248:	4603      	mov	r3, r0
 24a:	4618      	mov	r0, r3
 24c:	493f      	ldr	r1, [pc, #252]	; (34c <_Z22if_has_connection_movePSt3mapIjP6BBInfoSt4lessIjESaISt4pairIKjS1_EEEjPS1_+0x158>)
 24e:	f7ff fffe 	bl	0 <_ZNSolsEPFRSt8ios_baseS0_E>
 252:	687b      	ldr	r3, [r7, #4]
 254:	681b      	ldr	r3, [r3, #0]
 256:	613b      	str	r3, [r7, #16]
 258:	6978      	ldr	r0, [r7, #20]
 25a:	6879      	ldr	r1, [r7, #4]
 25c:	f7ff fffe 	bl	354 <_Z27search_and_change_currentBBjPP6BBInfo>
 260:	e065      	b.n	32e <_Z22if_has_connection_movePSt3mapIjP6BBInfoSt4lessIjESaISt4pairIKjS1_EEEjPS1_+0x13a>
 262:	687b      	ldr	r3, [r7, #4]
 264:	681b      	ldr	r3, [r3, #0]
 266:	685b      	ldr	r3, [r3, #4]
 268:	2b03      	cmp	r3, #3
 26a:	d12f      	bne.n	2cc <_Z22if_has_connection_movePSt3mapIjP6BBInfoSt4lessIjESaISt4pairIKjS1_EEEjPS1_+0xd8>
 26c:	687b      	ldr	r3, [r7, #4]
 26e:	681b      	ldr	r3, [r3, #0]
 270:	689a      	ldr	r2, [r3, #8]
 272:	68bb      	ldr	r3, [r7, #8]
 274:	429a      	cmp	r2, r3
 276:	d001      	beq.n	27c <_Z22if_has_connection_movePSt3mapIjP6BBInfoSt4lessIjESaISt4pairIKjS1_EEEjPS1_+0x88>
 278:	2300      	movs	r3, #0
 27a:	e059      	b.n	330 <_Z22if_has_connection_movePSt3mapIjP6BBInfoSt4lessIjESaISt4pairIKjS1_EEEjPS1_+0x13c>
 27c:	4b2e      	ldr	r3, [pc, #184]	; (338 <_Z22if_has_connection_movePSt3mapIjP6BBInfoSt4lessIjESaISt4pairIKjS1_EEEjPS1_+0x144>)
 27e:	681a      	ldr	r2, [r3, #0]
 280:	687b      	ldr	r3, [r7, #4]
 282:	681b      	ldr	r3, [r3, #0]
 284:	330c      	adds	r3, #12
 286:	4610      	mov	r0, r2
 288:	4619      	mov	r1, r3
 28a:	f7ff fffe 	bl	0 <_ZL20__gthread_key_deletei>
 28e:	482b      	ldr	r0, [pc, #172]	; (33c <_Z22if_has_connection_movePSt3mapIjP6BBInfoSt4lessIjESaISt4pairIKjS1_EEEjPS1_+0x148>)
 290:	492f      	ldr	r1, [pc, #188]	; (350 <_Z22if_has_connection_movePSt3mapIjP6BBInfoSt4lessIjESaISt4pairIKjS1_EEEjPS1_+0x15c>)
 292:	f7ff fffe 	bl	0 <_ZStlsISt11char_traitsIcEERSt13basic_ostreamIcT_ES5_PKc>
 296:	4829      	ldr	r0, [pc, #164]	; (33c <_Z22if_has_connection_movePSt3mapIjP6BBInfoSt4lessIjESaISt4pairIKjS1_EEEjPS1_+0x148>)
 298:	492a      	ldr	r1, [pc, #168]	; (344 <_Z22if_has_connection_movePSt3mapIjP6BBInfoSt4lessIjESaISt4pairIKjS1_EEEjPS1_+0x150>)
 29a:	f7ff fffe 	bl	0 <_ZNSolsEPFRSt8ios_baseS0_E>
 29e:	4602      	mov	r2, r0
 2a0:	687b      	ldr	r3, [r7, #4]
 2a2:	681b      	ldr	r3, [r3, #0]
 2a4:	68db      	ldr	r3, [r3, #12]
 2a6:	4610      	mov	r0, r2
 2a8:	4619      	mov	r1, r3
 2aa:	f7ff fffe 	bl	0 <_ZNSolsEj>
 2ae:	4603      	mov	r3, r0
 2b0:	4618      	mov	r0, r3
 2b2:	4926      	ldr	r1, [pc, #152]	; (34c <_Z22if_has_connection_movePSt3mapIjP6BBInfoSt4lessIjESaISt4pairIKjS1_EEEjPS1_+0x158>)
 2b4:	f7ff fffe 	bl	0 <_ZNSolsEPFRSt8ios_baseS0_E>
 2b8:	4603      	mov	r3, r0
 2ba:	4618      	mov	r0, r3
 2bc:	4922      	ldr	r1, [pc, #136]	; (348 <_Z22if_has_connection_movePSt3mapIjP6BBInfoSt4lessIjESaISt4pairIKjS1_EEEjPS1_+0x154>)
 2be:	f7ff fffe 	bl	0 <_ZNSolsEPFRSoS_E>
 2c2:	68b8      	ldr	r0, [r7, #8]
 2c4:	6879      	ldr	r1, [r7, #4]
 2c6:	f7ff fffe 	bl	354 <_Z27search_and_change_currentBBjPP6BBInfo>
 2ca:	e030      	b.n	32e <_Z22if_has_connection_movePSt3mapIjP6BBInfoSt4lessIjESaISt4pairIKjS1_EEEjPS1_+0x13a>
 2cc:	687b      	ldr	r3, [r7, #4]
 2ce:	681b      	ldr	r3, [r3, #0]
 2d0:	685b      	ldr	r3, [r3, #4]
 2d2:	2b01      	cmp	r3, #1
 2d4:	d10c      	bne.n	2f0 <_Z22if_has_connection_movePSt3mapIjP6BBInfoSt4lessIjESaISt4pairIKjS1_EEEjPS1_+0xfc>
 2d6:	687b      	ldr	r3, [r7, #4]
 2d8:	681b      	ldr	r3, [r3, #0]
 2da:	689a      	ldr	r2, [r3, #8]
 2dc:	68bb      	ldr	r3, [r7, #8]
 2de:	429a      	cmp	r2, r3
 2e0:	d001      	beq.n	2e6 <_Z22if_has_connection_movePSt3mapIjP6BBInfoSt4lessIjESaISt4pairIKjS1_EEEjPS1_+0xf2>
 2e2:	2300      	movs	r3, #0
 2e4:	e024      	b.n	330 <_Z22if_has_connection_movePSt3mapIjP6BBInfoSt4lessIjESaISt4pairIKjS1_EEEjPS1_+0x13c>
 2e6:	68b8      	ldr	r0, [r7, #8]
 2e8:	6879      	ldr	r1, [r7, #4]
 2ea:	f7ff fffe 	bl	354 <_Z27search_and_change_currentBBjPP6BBInfo>
 2ee:	e01e      	b.n	32e <_Z22if_has_connection_movePSt3mapIjP6BBInfoSt4lessIjESaISt4pairIKjS1_EEEjPS1_+0x13a>
 2f0:	687b      	ldr	r3, [r7, #4]
 2f2:	681b      	ldr	r3, [r3, #0]
 2f4:	685b      	ldr	r3, [r3, #4]
 2f6:	2b02      	cmp	r3, #2
 2f8:	d117      	bne.n	32a <_Z22if_has_connection_movePSt3mapIjP6BBInfoSt4lessIjESaISt4pairIKjS1_EEEjPS1_+0x136>
 2fa:	687b      	ldr	r3, [r7, #4]
 2fc:	681b      	ldr	r3, [r3, #0]
 2fe:	689a      	ldr	r2, [r3, #8]
 300:	68bb      	ldr	r3, [r7, #8]
 302:	429a      	cmp	r2, r3
 304:	d00c      	beq.n	320 <_Z22if_has_connection_movePSt3mapIjP6BBInfoSt4lessIjESaISt4pairIKjS1_EEEjPS1_+0x12c>
 306:	687b      	ldr	r3, [r7, #4]
 308:	681b      	ldr	r3, [r3, #0]
 30a:	68da      	ldr	r2, [r3, #12]
 30c:	68bb      	ldr	r3, [r7, #8]
 30e:	429a      	cmp	r2, r3
 310:	d001      	beq.n	316 <_Z22if_has_connection_movePSt3mapIjP6BBInfoSt4lessIjESaISt4pairIKjS1_EEEjPS1_+0x122>
 312:	2300      	movs	r3, #0
 314:	e00c      	b.n	330 <_Z22if_has_connection_movePSt3mapIjP6BBInfoSt4lessIjESaISt4pairIKjS1_EEEjPS1_+0x13c>
 316:	68b8      	ldr	r0, [r7, #8]
 318:	6879      	ldr	r1, [r7, #4]
 31a:	f7ff fffe 	bl	354 <_Z27search_and_change_currentBBjPP6BBInfo>
 31e:	e006      	b.n	32e <_Z22if_has_connection_movePSt3mapIjP6BBInfoSt4lessIjESaISt4pairIKjS1_EEEjPS1_+0x13a>
 320:	68b8      	ldr	r0, [r7, #8]
 322:	6879      	ldr	r1, [r7, #4]
 324:	f7ff fffe 	bl	354 <_Z27search_and_change_currentBBjPP6BBInfo>
 328:	e001      	b.n	32e <_Z22if_has_connection_movePSt3mapIjP6BBInfoSt4lessIjESaISt4pairIKjS1_EEEjPS1_+0x13a>
 32a:	2300      	movs	r3, #0
 32c:	e000      	b.n	330 <_Z22if_has_connection_movePSt3mapIjP6BBInfoSt4lessIjESaISt4pairIKjS1_EEEjPS1_+0x13c>
 32e:	2301      	movs	r3, #1
 330:	4618      	mov	r0, r3
 332:	3718      	adds	r7, #24
 334:	46bd      	mov	sp, r7
 336:	bd80      	pop	{r7, pc}
	...
 340:	00000034 	.word	0x00000034
	...
 350:	00000050 	.word	0x00000050

00000354 <_Z27search_and_change_currentBBjPP6BBInfo>:
 354:	b5b0      	push	{r4, r5, r7, lr}
 356:	b092      	sub	sp, #72	; 0x48
 358:	af00      	add	r7, sp, #0
 35a:	6078      	str	r0, [r7, #4]
 35c:	6039      	str	r1, [r7, #0]
 35e:	4b4b      	ldr	r3, [pc, #300]	; (48c <_Z27search_and_change_currentBBjPP6BBInfo+0x138>)
 360:	681a      	ldr	r2, [r3, #0]
 362:	1d3b      	adds	r3, r7, #4
 364:	4610      	mov	r0, r2
 366:	4619      	mov	r1, r3
 368:	f7ff fffe 	bl	0 <_ZL20__gthread_key_deletei>
 36c:	4603      	mov	r3, r0
 36e:	60fb      	str	r3, [r7, #12]
 370:	f107 030c 	add.w	r3, r7, #12
 374:	4618      	mov	r0, r3
 376:	f7ff fffe 	bl	0 <_ZL20__gthread_key_deletei>
 37a:	4603      	mov	r3, r0
 37c:	685b      	ldr	r3, [r3, #4]
 37e:	647b      	str	r3, [r7, #68]	; 0x44
 380:	683b      	ldr	r3, [r7, #0]
 382:	681b      	ldr	r3, [r3, #0]
 384:	681a      	ldr	r2, [r3, #0]
 386:	6c7b      	ldr	r3, [r7, #68]	; 0x44
 388:	681b      	ldr	r3, [r3, #0]
 38a:	4841      	ldr	r0, [pc, #260]	; (490 <_Z27search_and_change_currentBBjPP6BBInfo+0x13c>)
 38c:	4611      	mov	r1, r2
 38e:	461a      	mov	r2, r3
 390:	f7ff fffe 	bl	0 <printf>
 394:	683b      	ldr	r3, [r7, #0]
 396:	6c7a      	ldr	r2, [r7, #68]	; 0x44
 398:	601a      	str	r2, [r3, #0]
 39a:	683b      	ldr	r3, [r7, #0]
 39c:	681b      	ldr	r3, [r3, #0]
 39e:	685b      	ldr	r3, [r3, #4]
 3a0:	2b04      	cmp	r3, #4
 3a2:	d161      	bne.n	468 <_Z27search_and_change_currentBBjPP6BBInfo+0x114>
 3a4:	683b      	ldr	r3, [r7, #0]
 3a6:	681b      	ldr	r3, [r3, #0]
 3a8:	643b      	str	r3, [r7, #64]	; 0x40
 3aa:	4b38      	ldr	r3, [pc, #224]	; (48c <_Z27search_and_change_currentBBjPP6BBInfo+0x138>)
 3ac:	681a      	ldr	r2, [r3, #0]
 3ae:	2301      	movs	r3, #1
 3b0:	617b      	str	r3, [r7, #20]
 3b2:	f107 0314 	add.w	r3, r7, #20
 3b6:	4610      	mov	r0, r2
 3b8:	4619      	mov	r1, r3
 3ba:	f7ff fffe 	bl	0 <_ZL20__gthread_key_deletei>
 3be:	4603      	mov	r3, r0
 3c0:	613b      	str	r3, [r7, #16]
 3c2:	f107 0310 	add.w	r3, r7, #16
 3c6:	4618      	mov	r0, r3
 3c8:	f7ff fffe 	bl	0 <_ZL20__gthread_key_deletei>
 3cc:	4603      	mov	r3, r0
 3ce:	685a      	ldr	r2, [r3, #4]
 3d0:	683b      	ldr	r3, [r7, #0]
 3d2:	601a      	str	r2, [r3, #0]
 3d4:	6c3b      	ldr	r3, [r7, #64]	; 0x40
 3d6:	681a      	ldr	r2, [r3, #0]
 3d8:	683b      	ldr	r3, [r7, #0]
 3da:	681b      	ldr	r3, [r3, #0]
 3dc:	681b      	ldr	r3, [r3, #0]
 3de:	482c      	ldr	r0, [pc, #176]	; (490 <_Z27search_and_change_currentBBjPP6BBInfo+0x13c>)
 3e0:	4611      	mov	r1, r2
 3e2:	461a      	mov	r2, r3
 3e4:	f7ff fffe 	bl	0 <printf>
 3e8:	482a      	ldr	r0, [pc, #168]	; (494 <_Z27search_and_change_currentBBjPP6BBInfo+0x140>)
 3ea:	492b      	ldr	r1, [pc, #172]	; (498 <_Z27search_and_change_currentBBjPP6BBInfo+0x144>)
 3ec:	f7ff fffe 	bl	0 <_ZStlsISt11char_traitsIcEERSt13basic_ostreamIcT_ES5_PKc>
 3f0:	4603      	mov	r3, r0
 3f2:	4618      	mov	r0, r3
 3f4:	4929      	ldr	r1, [pc, #164]	; (49c <_Z27search_and_change_currentBBjPP6BBInfo+0x148>)
 3f6:	f7ff fffe 	bl	0 <_ZNSolsEPFRSoS_E>
 3fa:	4826      	ldr	r0, [pc, #152]	; (494 <_Z27search_and_change_currentBBjPP6BBInfo+0x140>)
 3fc:	4928      	ldr	r1, [pc, #160]	; (4a0 <_Z27search_and_change_currentBBjPP6BBInfo+0x14c>)
 3fe:	f7ff fffe 	bl	0 <_ZStlsISt11char_traitsIcEERSt13basic_ostreamIcT_ES5_PKc>
 402:	4603      	mov	r3, r0
 404:	4618      	mov	r0, r3
 406:	4925      	ldr	r1, [pc, #148]	; (49c <_Z27search_and_change_currentBBjPP6BBInfo+0x148>)
 408:	f7ff fffe 	bl	0 <_ZNSolsEPFRSoS_E>
 40c:	4821      	ldr	r0, [pc, #132]	; (494 <_Z27search_and_change_currentBBjPP6BBInfo+0x140>)
 40e:	4922      	ldr	r1, [pc, #136]	; (498 <_Z27search_and_change_currentBBjPP6BBInfo+0x144>)
 410:	f7ff fffe 	bl	0 <_ZStlsISt11char_traitsIcEERSt13basic_ostreamIcT_ES5_PKc>
 414:	4603      	mov	r3, r0
 416:	4618      	mov	r0, r3
 418:	4920      	ldr	r1, [pc, #128]	; (49c <_Z27search_and_change_currentBBjPP6BBInfo+0x148>)
 41a:	f7ff fffe 	bl	0 <_ZNSolsEPFRSoS_E>
 41e:	4603      	mov	r3, r0
 420:	4618      	mov	r0, r3
 422:	491e      	ldr	r1, [pc, #120]	; (49c <_Z27search_and_change_currentBBjPP6BBInfo+0x148>)
 424:	f7ff fffe 	bl	0 <_ZNSolsEPFRSoS_E>
 428:	4b1e      	ldr	r3, [pc, #120]	; (4a4 <_Z27search_and_change_currentBBjPP6BBInfo+0x150>)
 42a:	681c      	ldr	r4, [r3, #0]
 42c:	2c00      	cmp	r4, #0
 42e:	d005      	beq.n	43c <_Z27search_and_change_currentBBjPP6BBInfo+0xe8>
 430:	4620      	mov	r0, r4
 432:	f7ff fffe 	bl	0 <_ZL20__gthread_key_deletei>
 436:	4620      	mov	r0, r4
 438:	f7ff fffe 	bl	0 <_ZdlPv>
 43c:	f107 0318 	add.w	r3, r7, #24
 440:	4618      	mov	r0, r3
 442:	f7ff fffe 	bl	0 <_ZL20__gthread_key_deletei>
 446:	f107 0518 	add.w	r5, r7, #24
 44a:	2028      	movs	r0, #40	; 0x28
 44c:	f7ff fffe 	bl	0 <_Znwj>
 450:	4604      	mov	r4, r0
 452:	4620      	mov	r0, r4
 454:	4629      	mov	r1, r5
 456:	f7ff fffe 	bl	0 <_ZL20__gthread_key_deletei>
 45a:	4b12      	ldr	r3, [pc, #72]	; (4a4 <_Z27search_and_change_currentBBjPP6BBInfo+0x150>)
 45c:	601c      	str	r4, [r3, #0]
 45e:	f107 0318 	add.w	r3, r7, #24
 462:	4618      	mov	r0, r3
 464:	f7ff fffe 	bl	0 <_ZL20__gthread_key_deletei>
 468:	2301      	movs	r3, #1
 46a:	e00a      	b.n	482 <_Z27search_and_change_currentBBjPP6BBInfo+0x12e>
 46c:	4620      	mov	r0, r4
 46e:	f7ff fffe 	bl	0 <_ZdlPv>
 472:	e7ff      	b.n	474 <_Z27search_and_change_currentBBjPP6BBInfo+0x120>
 474:	f107 0318 	add.w	r3, r7, #24
 478:	4618      	mov	r0, r3
 47a:	f7ff fffe 	bl	0 <_ZL20__gthread_key_deletei>
 47e:	f7ff fffe 	bl	0 <__cxa_end_cleanup>
 482:	4618      	mov	r0, r3
 484:	3748      	adds	r7, #72	; 0x48
 486:	46bd      	mov	sp, r7
 488:	bdb0      	pop	{r4, r5, r7, pc}
 48a:	bf00      	nop
 48c:	00000000 	.word	0x00000000
 490:	0000006c 	.word	0x0000006c
 494:	00000000 	.word	0x00000000
 498:	00000080 	.word	0x00000080
 49c:	00000000 	.word	0x00000000
 4a0:	00000098 	.word	0x00000098
 4a4:	00000000 	.word	0x00000000

000004a8 <_Z41__static_initialization_and_destruction_0ii>:
 4a8:	b580      	push	{r7, lr}
 4aa:	b082      	sub	sp, #8
 4ac:	af00      	add	r7, sp, #0
 4ae:	6078      	str	r0, [r7, #4]
 4b0:	6039      	str	r1, [r7, #0]
 4b2:	687b      	ldr	r3, [r7, #4]
 4b4:	2b01      	cmp	r3, #1
 4b6:	d10c      	bne.n	4d2 <_Z41__static_initialization_and_destruction_0ii+0x2a>
 4b8:	683b      	ldr	r3, [r7, #0]
 4ba:	f64f 72ff 	movw	r2, #65535	; 0xffff
 4be:	4293      	cmp	r3, r2
 4c0:	d107      	bne.n	4d2 <_Z41__static_initialization_and_destruction_0ii+0x2a>
 4c2:	4805      	ldr	r0, [pc, #20]	; (4d8 <_Z41__static_initialization_and_destruction_0ii+0x30>)
 4c4:	f7ff fffe 	bl	0 <_ZNSt8ios_base4InitC1Ev>
 4c8:	4803      	ldr	r0, [pc, #12]	; (4d8 <_Z41__static_initialization_and_destruction_0ii+0x30>)
 4ca:	4904      	ldr	r1, [pc, #16]	; (4dc <_Z41__static_initialization_and_destruction_0ii+0x34>)
 4cc:	4a04      	ldr	r2, [pc, #16]	; (4e0 <_Z41__static_initialization_and_destruction_0ii+0x38>)
 4ce:	f7ff fffe 	bl	0 <__aeabi_atexit>
 4d2:	3708      	adds	r7, #8
 4d4:	46bd      	mov	sp, r7
 4d6:	bd80      	pop	{r7, pc}
	...

000004e4 <_GLOBAL__sub_I_p_pathtree>:
 4e4:	b580      	push	{r7, lr}
 4e6:	af00      	add	r7, sp, #0
 4e8:	2001      	movs	r0, #1
 4ea:	f64f 71ff 	movw	r1, #65535	; 0xffff
 4ee:	f7ff ffdb 	bl	4a8 <_Z41__static_initialization_and_destruction_0ii>
 4f2:	bd80      	pop	{r7, pc}

Disassembly of section .text._ZnwjPv:

00000000 <_ZnwjPv>:
   0:	b480      	push	{r7}
   2:	b083      	sub	sp, #12
   4:	af00      	add	r7, sp, #0
   6:	6078      	str	r0, [r7, #4]
   8:	6039      	str	r1, [r7, #0]
   a:	683b      	ldr	r3, [r7, #0]
   c:	4618      	mov	r0, r3
   e:	370c      	adds	r7, #12
  10:	46bd      	mov	sp, r7
  12:	f85d 7b04 	ldr.w	r7, [sp], #4
  16:	4770      	bx	lr

Disassembly of section .text._ZStanSt13_Ios_FmtflagsS_:

00000000 <_ZStanSt13_Ios_FmtflagsS_>:
   0:	b480      	push	{r7}
   2:	b083      	sub	sp, #12
   4:	af00      	add	r7, sp, #0
   6:	6078      	str	r0, [r7, #4]
   8:	6039      	str	r1, [r7, #0]
   a:	687a      	ldr	r2, [r7, #4]
   c:	683b      	ldr	r3, [r7, #0]
   e:	4013      	ands	r3, r2
  10:	4618      	mov	r0, r3
  12:	370c      	adds	r7, #12
  14:	46bd      	mov	sp, r7
  16:	f85d 7b04 	ldr.w	r7, [sp], #4
  1a:	4770      	bx	lr

Disassembly of section .text._ZStorSt13_Ios_FmtflagsS_:

00000000 <_ZStorSt13_Ios_FmtflagsS_>:
   0:	b480      	push	{r7}
   2:	b083      	sub	sp, #12
   4:	af00      	add	r7, sp, #0
   6:	6078      	str	r0, [r7, #4]
   8:	6039      	str	r1, [r7, #0]
   a:	687a      	ldr	r2, [r7, #4]
   c:	683b      	ldr	r3, [r7, #0]
   e:	4313      	orrs	r3, r2
  10:	4618      	mov	r0, r3
  12:	370c      	adds	r7, #12
  14:	46bd      	mov	sp, r7
  16:	f85d 7b04 	ldr.w	r7, [sp], #4
  1a:	4770      	bx	lr

Disassembly of section .text._ZStcoSt13_Ios_Fmtflags:

00000000 <_ZStcoSt13_Ios_Fmtflags>:
   0:	b480      	push	{r7}
   2:	b083      	sub	sp, #12
   4:	af00      	add	r7, sp, #0
   6:	6078      	str	r0, [r7, #4]
   8:	687b      	ldr	r3, [r7, #4]
   a:	43db      	mvns	r3, r3
   c:	4618      	mov	r0, r3
   e:	370c      	adds	r7, #12
  10:	46bd      	mov	sp, r7
  12:	f85d 7b04 	ldr.w	r7, [sp], #4
  16:	4770      	bx	lr

Disassembly of section .text._ZStoRRSt13_Ios_FmtflagsS_:

00000000 <_ZStoRRSt13_Ios_FmtflagsS_>:
   0:	b580      	push	{r7, lr}
   2:	b082      	sub	sp, #8
   4:	af00      	add	r7, sp, #0
   6:	6078      	str	r0, [r7, #4]
   8:	6039      	str	r1, [r7, #0]
   a:	687b      	ldr	r3, [r7, #4]
   c:	681b      	ldr	r3, [r3, #0]
   e:	4618      	mov	r0, r3
  10:	6839      	ldr	r1, [r7, #0]
  12:	f7ff fffe 	bl	0 <_ZStoRRSt13_Ios_FmtflagsS_>
  16:	4602      	mov	r2, r0
  18:	687b      	ldr	r3, [r7, #4]
  1a:	601a      	str	r2, [r3, #0]
  1c:	687b      	ldr	r3, [r7, #4]
  1e:	4618      	mov	r0, r3
  20:	3708      	adds	r7, #8
  22:	46bd      	mov	sp, r7
  24:	bd80      	pop	{r7, pc}
  26:	bf00      	nop

Disassembly of section .text._ZStaNRSt13_Ios_FmtflagsS_:

00000000 <_ZStaNRSt13_Ios_FmtflagsS_>:
   0:	b580      	push	{r7, lr}
   2:	b082      	sub	sp, #8
   4:	af00      	add	r7, sp, #0
   6:	6078      	str	r0, [r7, #4]
   8:	6039      	str	r1, [r7, #0]
   a:	687b      	ldr	r3, [r7, #4]
   c:	681b      	ldr	r3, [r3, #0]
   e:	4618      	mov	r0, r3
  10:	6839      	ldr	r1, [r7, #0]
  12:	f7ff fffe 	bl	0 <_ZStaNRSt13_Ios_FmtflagsS_>
  16:	4602      	mov	r2, r0
  18:	687b      	ldr	r3, [r7, #4]
  1a:	601a      	str	r2, [r3, #0]
  1c:	687b      	ldr	r3, [r7, #4]
  1e:	4618      	mov	r0, r3
  20:	3708      	adds	r7, #8
  22:	46bd      	mov	sp, r7
  24:	bd80      	pop	{r7, pc}
  26:	bf00      	nop

Disassembly of section .text._ZNSt8ios_base4setfESt13_Ios_FmtflagsS0_:

00000000 <_ZNSt8ios_base4setfESt13_Ios_FmtflagsS0_>:
   0:	b590      	push	{r4, r7, lr}
   2:	b087      	sub	sp, #28
   4:	af00      	add	r7, sp, #0
   6:	60f8      	str	r0, [r7, #12]
   8:	60b9      	str	r1, [r7, #8]
   a:	607a      	str	r2, [r7, #4]
   c:	68fb      	ldr	r3, [r7, #12]
   e:	68db      	ldr	r3, [r3, #12]
  10:	617b      	str	r3, [r7, #20]
  12:	68fb      	ldr	r3, [r7, #12]
  14:	f103 040c 	add.w	r4, r3, #12
  18:	6878      	ldr	r0, [r7, #4]
  1a:	f7ff fffe 	bl	0 <_ZNSt8ios_base4setfESt13_Ios_FmtflagsS0_>
  1e:	4603      	mov	r3, r0
  20:	4620      	mov	r0, r4
  22:	4619      	mov	r1, r3
  24:	f7ff fffe 	bl	0 <_ZNSt8ios_base4setfESt13_Ios_FmtflagsS0_>
  28:	68fb      	ldr	r3, [r7, #12]
  2a:	f103 040c 	add.w	r4, r3, #12
  2e:	68b8      	ldr	r0, [r7, #8]
  30:	6879      	ldr	r1, [r7, #4]
  32:	f7ff fffe 	bl	0 <_ZNSt8ios_base4setfESt13_Ios_FmtflagsS0_>
  36:	4603      	mov	r3, r0
  38:	4620      	mov	r0, r4
  3a:	4619      	mov	r1, r3
  3c:	f7ff fffe 	bl	0 <_ZNSt8ios_base4setfESt13_Ios_FmtflagsS0_>
  40:	697b      	ldr	r3, [r7, #20]
  42:	4618      	mov	r0, r3
  44:	371c      	adds	r7, #28
  46:	46bd      	mov	sp, r7
  48:	bd90      	pop	{r4, r7, pc}
  4a:	bf00      	nop

Disassembly of section .text._ZSt3decRSt8ios_base:

00000000 <_ZSt3decRSt8ios_base>:
   0:	b580      	push	{r7, lr}
   2:	b082      	sub	sp, #8
   4:	af00      	add	r7, sp, #0
   6:	6078      	str	r0, [r7, #4]
   8:	6878      	ldr	r0, [r7, #4]
   a:	2102      	movs	r1, #2
   c:	224a      	movs	r2, #74	; 0x4a
   e:	f7ff fffe 	bl	0 <_ZSt3decRSt8ios_base>
  12:	687b      	ldr	r3, [r7, #4]
  14:	4618      	mov	r0, r3
  16:	3708      	adds	r7, #8
  18:	46bd      	mov	sp, r7
  1a:	bd80      	pop	{r7, pc}

Disassembly of section .text._ZSt3hexRSt8ios_base:

00000000 <_ZSt3hexRSt8ios_base>:
   0:	b580      	push	{r7, lr}
   2:	b082      	sub	sp, #8
   4:	af00      	add	r7, sp, #0
   6:	6078      	str	r0, [r7, #4]
   8:	6878      	ldr	r0, [r7, #4]
   a:	2108      	movs	r1, #8
   c:	224a      	movs	r2, #74	; 0x4a
   e:	f7ff fffe 	bl	0 <_ZSt3hexRSt8ios_base>
  12:	687b      	ldr	r3, [r7, #4]
  14:	4618      	mov	r0, r3
  16:	3708      	adds	r7, #8
  18:	46bd      	mov	sp, r7
  1a:	bd80      	pop	{r7, pc}

Disassembly of section .text._ZSt16__deque_buf_sizej:

00000000 <_ZSt16__deque_buf_sizej>:
   0:	b480      	push	{r7}
   2:	b083      	sub	sp, #12
   4:	af00      	add	r7, sp, #0
   6:	6078      	str	r0, [r7, #4]
   8:	687b      	ldr	r3, [r7, #4]
   a:	f5b3 7f00 	cmp.w	r3, #512	; 0x200
   e:	d205      	bcs.n	1c <_ZSt16__deque_buf_sizej+0x1c>
  10:	f44f 7200 	mov.w	r2, #512	; 0x200
  14:	687b      	ldr	r3, [r7, #4]
  16:	fbb2 f3f3 	udiv	r3, r2, r3
  1a:	e000      	b.n	1e <_ZSt16__deque_buf_sizej+0x1e>
  1c:	2301      	movs	r3, #1
  1e:	4618      	mov	r0, r3
  20:	370c      	adds	r7, #12
  22:	46bd      	mov	sp, r7
  24:	f85d 7b04 	ldr.w	r7, [sp], #4
  28:	4770      	bx	lr
  2a:	bf00      	nop

Disassembly of section .text._ZN6BBInfoC2Ejjjj:

00000000 <_ZN6BBInfoC1Ejjjj>:
   0:	b480      	push	{r7}
   2:	b085      	sub	sp, #20
   4:	af00      	add	r7, sp, #0
   6:	60f8      	str	r0, [r7, #12]
   8:	60b9      	str	r1, [r7, #8]
   a:	607a      	str	r2, [r7, #4]
   c:	603b      	str	r3, [r7, #0]
   e:	68fb      	ldr	r3, [r7, #12]
  10:	68ba      	ldr	r2, [r7, #8]
  12:	601a      	str	r2, [r3, #0]
  14:	68fb      	ldr	r3, [r7, #12]
  16:	687a      	ldr	r2, [r7, #4]
  18:	605a      	str	r2, [r3, #4]
  1a:	68fb      	ldr	r3, [r7, #12]
  1c:	683a      	ldr	r2, [r7, #0]
  1e:	609a      	str	r2, [r3, #8]
  20:	68fb      	ldr	r3, [r7, #12]
  22:	69ba      	ldr	r2, [r7, #24]
  24:	60da      	str	r2, [r3, #12]
  26:	68fb      	ldr	r3, [r7, #12]
  28:	4618      	mov	r0, r3
  2a:	3714      	adds	r7, #20
  2c:	46bd      	mov	sp, r7
  2e:	f85d 7b04 	ldr.w	r7, [sp], #4
  32:	4770      	bx	lr

Disassembly of section .text._ZNSt5stackIjSt5dequeIjSaIjEEED2Ev:

00000000 <_ZNSt5stackIjSt5dequeIjSaIjEEED1Ev>:
   0:	b580      	push	{r7, lr}
   2:	b082      	sub	sp, #8
   4:	af00      	add	r7, sp, #0
   6:	6078      	str	r0, [r7, #4]
   8:	687b      	ldr	r3, [r7, #4]
   a:	4618      	mov	r0, r3
   c:	f7ff fffe 	bl	0 <_ZNSt5stackIjSt5dequeIjSaIjEEED1Ev>
  10:	687b      	ldr	r3, [r7, #4]
  12:	4618      	mov	r0, r3
  14:	3708      	adds	r7, #8
  16:	46bd      	mov	sp, r7
  18:	bd80      	pop	{r7, pc}
  1a:	bf00      	nop

Disassembly of section .text._ZNSt5dequeIjSaIjEEC2Ev:

00000000 <_ZNSt5dequeIjSaIjEEC1Ev>:
   0:	b580      	push	{r7, lr}
   2:	b082      	sub	sp, #8
   4:	af00      	add	r7, sp, #0
   6:	6078      	str	r0, [r7, #4]
   8:	687b      	ldr	r3, [r7, #4]
   a:	4618      	mov	r0, r3
   c:	f7ff fffe 	bl	0 <_ZNSt5dequeIjSaIjEEC1Ev>
  10:	687b      	ldr	r3, [r7, #4]
  12:	4618      	mov	r0, r3
  14:	3708      	adds	r7, #8
  16:	46bd      	mov	sp, r7
  18:	bd80      	pop	{r7, pc}
  1a:	bf00      	nop

Disassembly of section .text._ZNSt5dequeIjSaIjEED2Ev:

00000000 <_ZNSt5dequeIjSaIjEED1Ev>:
   0:	b590      	push	{r4, r7, lr}
   2:	b08b      	sub	sp, #44	; 0x2c
   4:	af00      	add	r7, sp, #0
   6:	6078      	str	r0, [r7, #4]
   8:	f107 0308 	add.w	r3, r7, #8
   c:	4618      	mov	r0, r3
   e:	6879      	ldr	r1, [r7, #4]
  10:	f7ff fffe 	bl	0 <_ZNSt5dequeIjSaIjEED1Ev>
  14:	f107 0318 	add.w	r3, r7, #24
  18:	4618      	mov	r0, r3
  1a:	6879      	ldr	r1, [r7, #4]
  1c:	f7ff fffe 	bl	0 <_ZNSt5dequeIjSaIjEED1Ev>
  20:	687b      	ldr	r3, [r7, #4]
  22:	4618      	mov	r0, r3
  24:	f7ff fffe 	bl	0 <_ZNSt5dequeIjSaIjEED1Ev>
  28:	4604      	mov	r4, r0
  2a:	f107 0208 	add.w	r2, r7, #8
  2e:	f107 0318 	add.w	r3, r7, #24
  32:	6878      	ldr	r0, [r7, #4]
  34:	4611      	mov	r1, r2
  36:	461a      	mov	r2, r3
  38:	4623      	mov	r3, r4
  3a:	f7ff fffe 	bl	0 <_ZNSt5dequeIjSaIjEED1Ev>
  3e:	687b      	ldr	r3, [r7, #4]
  40:	4618      	mov	r0, r3
  42:	f7ff fffe 	bl	0 <_ZNSt5dequeIjSaIjEED1Ev>
  46:	687b      	ldr	r3, [r7, #4]
  48:	e005      	b.n	56 <_ZNSt5dequeIjSaIjEED1Ev+0x56>
  4a:	687b      	ldr	r3, [r7, #4]
  4c:	4618      	mov	r0, r3
  4e:	f7ff fffe 	bl	0 <_ZNSt5dequeIjSaIjEED1Ev>
  52:	f7ff fffe 	bl	0 <__cxa_end_cleanup>
  56:	4618      	mov	r0, r3
  58:	372c      	adds	r7, #44	; 0x2c
  5a:	46bd      	mov	sp, r7
  5c:	bd90      	pop	{r4, r7, pc}
  5e:	bf00      	nop

Disassembly of section .text._ZNSt5stackIjSt5dequeIjSaIjEEEC2ERKS2_:

00000000 <_ZNSt5stackIjSt5dequeIjSaIjEEEC1ERKS2_>:
   0:	b580      	push	{r7, lr}
   2:	b082      	sub	sp, #8
   4:	af00      	add	r7, sp, #0
   6:	6078      	str	r0, [r7, #4]
   8:	6039      	str	r1, [r7, #0]
   a:	687b      	ldr	r3, [r7, #4]
   c:	4618      	mov	r0, r3
   e:	6839      	ldr	r1, [r7, #0]
  10:	f7ff fffe 	bl	0 <_ZNSt5stackIjSt5dequeIjSaIjEEEC1ERKS2_>
  14:	687b      	ldr	r3, [r7, #4]
  16:	4618      	mov	r0, r3
  18:	3708      	adds	r7, #8
  1a:	46bd      	mov	sp, r7
  1c:	bd80      	pop	{r7, pc}
  1e:	bf00      	nop

Disassembly of section .text._ZSt9make_pairIjP6BBInfoESt4pairIT_T0_ES3_S4_:

00000000 <_ZSt9make_pairIjP6BBInfoESt4pairIT_T0_ES3_S4_>:
   0:	b580      	push	{r7, lr}
   2:	b084      	sub	sp, #16
   4:	af00      	add	r7, sp, #0
   6:	60f8      	str	r0, [r7, #12]
   8:	60b9      	str	r1, [r7, #8]
   a:	607a      	str	r2, [r7, #4]
   c:	f107 0208 	add.w	r2, r7, #8
  10:	1d3b      	adds	r3, r7, #4
  12:	68f8      	ldr	r0, [r7, #12]
  14:	4611      	mov	r1, r2
  16:	461a      	mov	r2, r3
  18:	f7ff fffe 	bl	0 <_ZSt9make_pairIjP6BBInfoESt4pairIT_T0_ES3_S4_>
  1c:	68f8      	ldr	r0, [r7, #12]
  1e:	3710      	adds	r7, #16
  20:	46bd      	mov	sp, r7
  22:	bd80      	pop	{r7, pc}

Disassembly of section .text._ZNSt4pairIKjP6BBInfoEC2IjS2_EERKS_IT_T0_E:

00000000 <_ZNSt4pairIKjP6BBInfoEC1IjS2_EERKS_IT_T0_E>:
   0:	b480      	push	{r7}
   2:	b083      	sub	sp, #12
   4:	af00      	add	r7, sp, #0
   6:	6078      	str	r0, [r7, #4]
   8:	6039      	str	r1, [r7, #0]
   a:	683b      	ldr	r3, [r7, #0]
   c:	681a      	ldr	r2, [r3, #0]
   e:	687b      	ldr	r3, [r7, #4]
  10:	601a      	str	r2, [r3, #0]
  12:	683b      	ldr	r3, [r7, #0]
  14:	685a      	ldr	r2, [r3, #4]
  16:	687b      	ldr	r3, [r7, #4]
  18:	605a      	str	r2, [r3, #4]
  1a:	687b      	ldr	r3, [r7, #4]
  1c:	4618      	mov	r0, r3
  1e:	370c      	adds	r7, #12
  20:	46bd      	mov	sp, r7
  22:	f85d 7b04 	ldr.w	r7, [sp], #4
  26:	4770      	bx	lr

Disassembly of section .text._ZNSt3mapIjP6BBInfoSt4lessIjESaISt4pairIKjS1_EEE6insertERKS6_:

00000000 <_ZNSt3mapIjP6BBInfoSt4lessIjESaISt4pairIKjS1_EEE6insertERKS6_>:
   0:	b580      	push	{r7, lr}
   2:	b084      	sub	sp, #16
   4:	af00      	add	r7, sp, #0
   6:	60f8      	str	r0, [r7, #12]
   8:	60b9      	str	r1, [r7, #8]
   a:	607a      	str	r2, [r7, #4]
   c:	68bb      	ldr	r3, [r7, #8]
   e:	68fa      	ldr	r2, [r7, #12]
  10:	4610      	mov	r0, r2
  12:	4619      	mov	r1, r3
  14:	687a      	ldr	r2, [r7, #4]
  16:	f7ff fffe 	bl	0 <_ZNSt3mapIjP6BBInfoSt4lessIjESaISt4pairIKjS1_EEE6insertERKS6_>
  1a:	68f8      	ldr	r0, [r7, #12]
  1c:	3710      	adds	r7, #16
  1e:	46bd      	mov	sp, r7
  20:	bd80      	pop	{r7, pc}
  22:	bf00      	nop

Disassembly of section .text._ZNSt3mapIjP6BBInfoSt4lessIjESaISt4pairIKjS1_EEE4findERS5_:

00000000 <_ZNSt3mapIjP6BBInfoSt4lessIjESaISt4pairIKjS1_EEE4findERS5_>:
   0:	b580      	push	{r7, lr}
   2:	b082      	sub	sp, #8
   4:	af00      	add	r7, sp, #0
   6:	6078      	str	r0, [r7, #4]
   8:	6039      	str	r1, [r7, #0]
   a:	687b      	ldr	r3, [r7, #4]
   c:	4618      	mov	r0, r3
   e:	6839      	ldr	r1, [r7, #0]
  10:	f7ff fffe 	bl	0 <_ZNSt3mapIjP6BBInfoSt4lessIjESaISt4pairIKjS1_EEE4findERS5_>
  14:	4603      	mov	r3, r0
  16:	4618      	mov	r0, r3
  18:	3708      	adds	r7, #8
  1a:	46bd      	mov	sp, r7
  1c:	bd80      	pop	{r7, pc}
  1e:	bf00      	nop

Disassembly of section .text._ZNKSt17_Rb_tree_iteratorISt4pairIKjP6BBInfoEEptEv:

00000000 <_ZNKSt17_Rb_tree_iteratorISt4pairIKjP6BBInfoEEptEv>:
   0:	b580      	push	{r7, lr}
   2:	b082      	sub	sp, #8
   4:	af00      	add	r7, sp, #0
   6:	6078      	str	r0, [r7, #4]
   8:	687b      	ldr	r3, [r7, #4]
   a:	681b      	ldr	r3, [r3, #0]
   c:	4618      	mov	r0, r3
   e:	f7ff fffe 	bl	0 <_ZNKSt17_Rb_tree_iteratorISt4pairIKjP6BBInfoEEptEv>
  12:	4603      	mov	r3, r0
  14:	4618      	mov	r0, r3
  16:	3708      	adds	r7, #8
  18:	46bd      	mov	sp, r7
  1a:	bd80      	pop	{r7, pc}

Disassembly of section .text._ZNSt5stackIjSt5dequeIjSaIjEEE3topEv:

00000000 <_ZNSt5stackIjSt5dequeIjSaIjEEE3topEv>:
   0:	b580      	push	{r7, lr}
   2:	b082      	sub	sp, #8
   4:	af00      	add	r7, sp, #0
   6:	6078      	str	r0, [r7, #4]
   8:	687b      	ldr	r3, [r7, #4]
   a:	4618      	mov	r0, r3
   c:	f7ff fffe 	bl	0 <_ZNSt5stackIjSt5dequeIjSaIjEEE3topEv>
  10:	4603      	mov	r3, r0
  12:	4618      	mov	r0, r3
  14:	3708      	adds	r7, #8
  16:	46bd      	mov	sp, r7
  18:	bd80      	pop	{r7, pc}
  1a:	bf00      	nop

Disassembly of section .text._ZNSt5stackIjSt5dequeIjSaIjEEE3popEv:

00000000 <_ZNSt5stackIjSt5dequeIjSaIjEEE3popEv>:
   0:	b580      	push	{r7, lr}
   2:	b082      	sub	sp, #8
   4:	af00      	add	r7, sp, #0
   6:	6078      	str	r0, [r7, #4]
   8:	687b      	ldr	r3, [r7, #4]
   a:	4618      	mov	r0, r3
   c:	f7ff fffe 	bl	0 <_ZNSt5stackIjSt5dequeIjSaIjEEE3popEv>
  10:	3708      	adds	r7, #8
  12:	46bd      	mov	sp, r7
  14:	bd80      	pop	{r7, pc}
  16:	bf00      	nop

Disassembly of section .text._ZNSt5stackIjSt5dequeIjSaIjEEE4pushERKj:

00000000 <_ZNSt5stackIjSt5dequeIjSaIjEEE4pushERKj>:
   0:	b580      	push	{r7, lr}
   2:	b082      	sub	sp, #8
   4:	af00      	add	r7, sp, #0
   6:	6078      	str	r0, [r7, #4]
   8:	6039      	str	r1, [r7, #0]
   a:	687b      	ldr	r3, [r7, #4]
   c:	4618      	mov	r0, r3
   e:	6839      	ldr	r1, [r7, #0]
  10:	f7ff fffe 	bl	0 <_ZNSt5stackIjSt5dequeIjSaIjEEE4pushERKj>
  14:	3708      	adds	r7, #8
  16:	46bd      	mov	sp, r7
  18:	bd80      	pop	{r7, pc}
  1a:	bf00      	nop

Disassembly of section .text._ZNSt11_Deque_baseIjSaIjEE11_Deque_implD2Ev:

00000000 <_ZNSt11_Deque_baseIjSaIjEE11_Deque_implD1Ev>:
   0:	b580      	push	{r7, lr}
   2:	b082      	sub	sp, #8
   4:	af00      	add	r7, sp, #0
   6:	6078      	str	r0, [r7, #4]
   8:	6878      	ldr	r0, [r7, #4]
   a:	f7ff fffe 	bl	0 <_ZNSt11_Deque_baseIjSaIjEE11_Deque_implD1Ev>
   e:	687b      	ldr	r3, [r7, #4]
  10:	4618      	mov	r0, r3
  12:	3708      	adds	r7, #8
  14:	46bd      	mov	sp, r7
  16:	bd80      	pop	{r7, pc}

Disassembly of section .text._ZNSt11_Deque_baseIjSaIjEEC2Ev:

00000000 <_ZNSt11_Deque_baseIjSaIjEEC1Ev>:
   0:	b580      	push	{r7, lr}
   2:	b082      	sub	sp, #8
   4:	af00      	add	r7, sp, #0
   6:	6078      	str	r0, [r7, #4]
   8:	687b      	ldr	r3, [r7, #4]
   a:	4618      	mov	r0, r3
   c:	f7ff fffe 	bl	0 <_ZNSt11_Deque_baseIjSaIjEEC1Ev>
  10:	6878      	ldr	r0, [r7, #4]
  12:	2100      	movs	r1, #0
  14:	f7ff fffe 	bl	0 <_ZNSt11_Deque_baseIjSaIjEEC1Ev>
  18:	687b      	ldr	r3, [r7, #4]
  1a:	e005      	b.n	28 <_ZNSt11_Deque_baseIjSaIjEEC1Ev+0x28>
  1c:	687b      	ldr	r3, [r7, #4]
  1e:	4618      	mov	r0, r3
  20:	f7ff fffe 	bl	0 <_ZNSt11_Deque_baseIjSaIjEEC1Ev>
  24:	f7ff fffe 	bl	0 <__cxa_end_cleanup>
  28:	4618      	mov	r0, r3
  2a:	3708      	adds	r7, #8
  2c:	46bd      	mov	sp, r7
  2e:	bd80      	pop	{r7, pc}

Disassembly of section .text._ZNSt11_Deque_baseIjSaIjEED2Ev:

00000000 <_ZNSt11_Deque_baseIjSaIjEED1Ev>:
   0:	b580      	push	{r7, lr}
   2:	b082      	sub	sp, #8
   4:	af00      	add	r7, sp, #0
   6:	6078      	str	r0, [r7, #4]
   8:	687b      	ldr	r3, [r7, #4]
   a:	681b      	ldr	r3, [r3, #0]
   c:	2b00      	cmp	r3, #0
   e:	d012      	beq.n	36 <_ZNSt11_Deque_baseIjSaIjEED1Ev+0x36>
  10:	687b      	ldr	r3, [r7, #4]
  12:	695a      	ldr	r2, [r3, #20]
  14:	687b      	ldr	r3, [r7, #4]
  16:	6a5b      	ldr	r3, [r3, #36]	; 0x24
  18:	3304      	adds	r3, #4
  1a:	6878      	ldr	r0, [r7, #4]
  1c:	4611      	mov	r1, r2
  1e:	461a      	mov	r2, r3
  20:	f7ff fffe 	bl	0 <_ZNSt11_Deque_baseIjSaIjEED1Ev>
  24:	687b      	ldr	r3, [r7, #4]
  26:	681a      	ldr	r2, [r3, #0]
  28:	687b      	ldr	r3, [r7, #4]
  2a:	685b      	ldr	r3, [r3, #4]
  2c:	6878      	ldr	r0, [r7, #4]
  2e:	4611      	mov	r1, r2
  30:	461a      	mov	r2, r3
  32:	f7ff fffe 	bl	0 <_ZNSt11_Deque_baseIjSaIjEED1Ev>
  36:	687b      	ldr	r3, [r7, #4]
  38:	4618      	mov	r0, r3
  3a:	f7ff fffe 	bl	0 <_ZNSt11_Deque_baseIjSaIjEED1Ev>
  3e:	687b      	ldr	r3, [r7, #4]
  40:	e005      	b.n	4e <_ZNSt11_Deque_baseIjSaIjEED1Ev+0x4e>
  42:	687b      	ldr	r3, [r7, #4]
  44:	4618      	mov	r0, r3
  46:	f7ff fffe 	bl	0 <_ZNSt11_Deque_baseIjSaIjEED1Ev>
  4a:	f7ff fffe 	bl	0 <__cxa_end_cleanup>
  4e:	4618      	mov	r0, r3
  50:	3708      	adds	r7, #8
  52:	46bd      	mov	sp, r7
  54:	bd80      	pop	{r7, pc}
  56:	bf00      	nop

Disassembly of section .text._ZNSt5dequeIjSaIjEE5beginEv:

00000000 <_ZNSt5dequeIjSaIjEE5beginEv>:
   0:	b580      	push	{r7, lr}
   2:	b082      	sub	sp, #8
   4:	af00      	add	r7, sp, #0
   6:	6078      	str	r0, [r7, #4]
   8:	6039      	str	r1, [r7, #0]
   a:	683b      	ldr	r3, [r7, #0]
   c:	3308      	adds	r3, #8
   e:	6878      	ldr	r0, [r7, #4]
  10:	4619      	mov	r1, r3
  12:	f7ff fffe 	bl	0 <_ZNSt5dequeIjSaIjEE5beginEv>
  16:	6878      	ldr	r0, [r7, #4]
  18:	3708      	adds	r7, #8
  1a:	46bd      	mov	sp, r7
  1c:	bd80      	pop	{r7, pc}
  1e:	bf00      	nop

Disassembly of section .text._ZNSt5dequeIjSaIjEE3endEv:

00000000 <_ZNSt5dequeIjSaIjEE3endEv>:
   0:	b580      	push	{r7, lr}
   2:	b082      	sub	sp, #8
   4:	af00      	add	r7, sp, #0
   6:	6078      	str	r0, [r7, #4]
   8:	6039      	str	r1, [r7, #0]
   a:	683b      	ldr	r3, [r7, #0]
   c:	3318      	adds	r3, #24
   e:	6878      	ldr	r0, [r7, #4]
  10:	4619      	mov	r1, r3
  12:	f7ff fffe 	bl	0 <_ZNSt5dequeIjSaIjEE3endEv>
  16:	6878      	ldr	r0, [r7, #4]
  18:	3708      	adds	r7, #8
  1a:	46bd      	mov	sp, r7
  1c:	bd80      	pop	{r7, pc}
  1e:	bf00      	nop

Disassembly of section .text._ZNSt11_Deque_baseIjSaIjEE19_M_get_Tp_allocatorEv:

00000000 <_ZNSt11_Deque_baseIjSaIjEE19_M_get_Tp_allocatorEv>:
   0:	b480      	push	{r7}
   2:	b083      	sub	sp, #12
   4:	af00      	add	r7, sp, #0
   6:	6078      	str	r0, [r7, #4]
   8:	687b      	ldr	r3, [r7, #4]
   a:	4618      	mov	r0, r3
   c:	370c      	adds	r7, #12
   e:	46bd      	mov	sp, r7
  10:	f85d 7b04 	ldr.w	r7, [sp], #4
  14:	4770      	bx	lr
  16:	bf00      	nop

Disassembly of section .text._ZNSt15_Deque_iteratorIjRjPjEC2ERKS2_:

00000000 <_ZNSt15_Deque_iteratorIjRjPjEC1ERKS2_>:
   0:	b480      	push	{r7}
   2:	b083      	sub	sp, #12
   4:	af00      	add	r7, sp, #0
   6:	6078      	str	r0, [r7, #4]
   8:	6039      	str	r1, [r7, #0]
   a:	683b      	ldr	r3, [r7, #0]
   c:	681a      	ldr	r2, [r3, #0]
   e:	687b      	ldr	r3, [r7, #4]
  10:	601a      	str	r2, [r3, #0]
  12:	683b      	ldr	r3, [r7, #0]
  14:	685a      	ldr	r2, [r3, #4]
  16:	687b      	ldr	r3, [r7, #4]
  18:	605a      	str	r2, [r3, #4]
  1a:	683b      	ldr	r3, [r7, #0]
  1c:	689a      	ldr	r2, [r3, #8]
  1e:	687b      	ldr	r3, [r7, #4]
  20:	609a      	str	r2, [r3, #8]
  22:	683b      	ldr	r3, [r7, #0]
  24:	68da      	ldr	r2, [r3, #12]
  26:	687b      	ldr	r3, [r7, #4]
  28:	60da      	str	r2, [r3, #12]
  2a:	687b      	ldr	r3, [r7, #4]
  2c:	4618      	mov	r0, r3
  2e:	370c      	adds	r7, #12
  30:	46bd      	mov	sp, r7
  32:	f85d 7b04 	ldr.w	r7, [sp], #4
  36:	4770      	bx	lr

Disassembly of section .text._ZNSt5dequeIjSaIjEE15_M_destroy_dataESt15_Deque_iteratorIjRjPjES5_RKS0_:

00000000 <_ZNSt5dequeIjSaIjEE15_M_destroy_dataESt15_Deque_iteratorIjRjPjES5_RKS0_>:
   0:	b480      	push	{r7}
   2:	b08d      	sub	sp, #52	; 0x34
   4:	af00      	add	r7, sp, #0
   6:	60f8      	str	r0, [r7, #12]
   8:	60b9      	str	r1, [r7, #8]
   a:	607a      	str	r2, [r7, #4]
   c:	603b      	str	r3, [r7, #0]
   e:	3734      	adds	r7, #52	; 0x34
  10:	46bd      	mov	sp, r7
  12:	f85d 7b04 	ldr.w	r7, [sp], #4
  16:	4770      	bx	lr

Disassembly of section .text._ZNSt5dequeIjSaIjEEC2ERKS1_:

00000000 <_ZNSt5dequeIjSaIjEEC1ERKS1_>:
   0:	b5f0      	push	{r4, r5, r6, r7, lr}
   2:	b09b      	sub	sp, #108	; 0x6c
   4:	af08      	add	r7, sp, #32
   6:	6178      	str	r0, [r7, #20]
   8:	6139      	str	r1, [r7, #16]
   a:	697c      	ldr	r4, [r7, #20]
   c:	693b      	ldr	r3, [r7, #16]
   e:	4618      	mov	r0, r3
  10:	f7ff fffe 	bl	0 <_ZNSt5dequeIjSaIjEEC1ERKS1_>
  14:	4605      	mov	r5, r0
  16:	6938      	ldr	r0, [r7, #16]
  18:	f7ff fffe 	bl	0 <_ZNSt5dequeIjSaIjEEC1ERKS1_>
  1c:	4603      	mov	r3, r0
  1e:	4620      	mov	r0, r4
  20:	4629      	mov	r1, r5
  22:	461a      	mov	r2, r3
  24:	f7ff fffe 	bl	0 <_ZNSt5dequeIjSaIjEEC1ERKS1_>
  28:	f107 0318 	add.w	r3, r7, #24
  2c:	4618      	mov	r0, r3
  2e:	6939      	ldr	r1, [r7, #16]
  30:	f7ff fffe 	bl	0 <_ZNSt5dequeIjSaIjEEC1ERKS1_>
  34:	f107 0328 	add.w	r3, r7, #40	; 0x28
  38:	4618      	mov	r0, r3
  3a:	6939      	ldr	r1, [r7, #16]
  3c:	f7ff fffe 	bl	0 <_ZNSt5dequeIjSaIjEEC1ERKS1_>
  40:	697b      	ldr	r3, [r7, #20]
  42:	3308      	adds	r3, #8
  44:	f107 0238 	add.w	r2, r7, #56	; 0x38
  48:	4610      	mov	r0, r2
  4a:	4619      	mov	r1, r3
  4c:	f7ff fffe 	bl	0 <_ZNSt5dequeIjSaIjEEC1ERKS1_>
  50:	697b      	ldr	r3, [r7, #20]
  52:	4618      	mov	r0, r3
  54:	f7ff fffe 	bl	0 <_ZNSt5dequeIjSaIjEEC1ERKS1_>
  58:	4606      	mov	r6, r0
  5a:	463d      	mov	r5, r7
  5c:	ac01      	add	r4, sp, #4
  5e:	f107 0328 	add.w	r3, r7, #40	; 0x28
  62:	cb0f      	ldmia	r3, {r0, r1, r2, r3}
  64:	e884 000f 	stmia.w	r4, {r0, r1, r2, r3}
  68:	f107 0338 	add.w	r3, r7, #56	; 0x38
  6c:	9305      	str	r3, [sp, #20]
  6e:	9606      	str	r6, [sp, #24]
  70:	6a7b      	ldr	r3, [r7, #36]	; 0x24
  72:	9300      	str	r3, [sp, #0]
  74:	f107 0318 	add.w	r3, r7, #24
  78:	cb0e      	ldmia	r3, {r1, r2, r3}
  7a:	4628      	mov	r0, r5
  7c:	f7ff fffe 	bl	0 <_ZNSt5dequeIjSaIjEEC1ERKS1_>
  80:	697b      	ldr	r3, [r7, #20]
  82:	e005      	b.n	90 <_ZNSt5dequeIjSaIjEEC1ERKS1_+0x90>
  84:	697b      	ldr	r3, [r7, #20]
  86:	4618      	mov	r0, r3
  88:	f7ff fffe 	bl	0 <_ZNSt5dequeIjSaIjEEC1ERKS1_>
  8c:	f7ff fffe 	bl	0 <__cxa_end_cleanup>
  90:	4618      	mov	r0, r3
  92:	374c      	adds	r7, #76	; 0x4c
  94:	46bd      	mov	sp, r7
  96:	bdf0      	pop	{r4, r5, r6, r7, pc}

Disassembly of section .text._ZNSt4pairIjP6BBInfoEC2ERKjRKS1_:

00000000 <_ZNSt4pairIjP6BBInfoEC1ERKjRKS1_>:
   0:	b480      	push	{r7}
   2:	b085      	sub	sp, #20
   4:	af00      	add	r7, sp, #0
   6:	60f8      	str	r0, [r7, #12]
   8:	60b9      	str	r1, [r7, #8]
   a:	607a      	str	r2, [r7, #4]
   c:	68bb      	ldr	r3, [r7, #8]
   e:	681a      	ldr	r2, [r3, #0]
  10:	68fb      	ldr	r3, [r7, #12]
  12:	601a      	str	r2, [r3, #0]
  14:	687b      	ldr	r3, [r7, #4]
  16:	681a      	ldr	r2, [r3, #0]
  18:	68fb      	ldr	r3, [r7, #12]
  1a:	605a      	str	r2, [r3, #4]
  1c:	68fb      	ldr	r3, [r7, #12]
  1e:	4618      	mov	r0, r3
  20:	3714      	adds	r7, #20
  22:	46bd      	mov	sp, r7
  24:	f85d 7b04 	ldr.w	r7, [sp], #4
  28:	4770      	bx	lr
  2a:	bf00      	nop

Disassembly of section .text._ZNSt8_Rb_treeIjSt4pairIKjP6BBInfoESt10_Select1stIS4_ESt4lessIjESaIS4_EE16_M_insert_uniqueERKS4_:

00000000 <_ZNSt8_Rb_treeIjSt4pairIKjP6BBInfoESt10_Select1stIS4_ESt4lessIjESaIS4_EE16_M_insert_uniqueERKS4_>:
   0:	b580      	push	{r7, lr}
   2:	b08c      	sub	sp, #48	; 0x30
   4:	af00      	add	r7, sp, #0
   6:	60f8      	str	r0, [r7, #12]
   8:	60b9      	str	r1, [r7, #8]
   a:	607a      	str	r2, [r7, #4]
   c:	f107 031c 	add.w	r3, r7, #28
  10:	4618      	mov	r0, r3
  12:	6879      	ldr	r1, [r7, #4]
  14:	f7ff fffe 	bl	0 <_ZNSt8_Rb_treeIjSt4pairIKjP6BBInfoESt10_Select1stIS4_ESt4lessIjESaIS4_EE16_M_insert_uniqueERKS4_>
  18:	4602      	mov	r2, r0
  1a:	f107 0314 	add.w	r3, r7, #20
  1e:	4618      	mov	r0, r3
  20:	68b9      	ldr	r1, [r7, #8]
  22:	f7ff fffe 	bl	0 <_ZNSt8_Rb_treeIjSt4pairIKjP6BBInfoESt10_Select1stIS4_ESt4lessIjESaIS4_EE16_M_insert_uniqueERKS4_>
  26:	69bb      	ldr	r3, [r7, #24]
  28:	2b00      	cmp	r3, #0
  2a:	d016      	beq.n	5a <_ZNSt8_Rb_treeIjSt4pairIKjP6BBInfoESt10_Select1stIS4_ESt4lessIjESaIS4_EE16_M_insert_uniqueERKS4_+0x5a>
  2c:	697a      	ldr	r2, [r7, #20]
  2e:	69bb      	ldr	r3, [r7, #24]
  30:	68b8      	ldr	r0, [r7, #8]
  32:	4611      	mov	r1, r2
  34:	461a      	mov	r2, r3
  36:	687b      	ldr	r3, [r7, #4]
  38:	f7ff fffe 	bl	0 <_ZNSt8_Rb_treeIjSt4pairIKjP6BBInfoESt10_Select1stIS4_ESt4lessIjESaIS4_EE16_M_insert_uniqueERKS4_>
  3c:	4603      	mov	r3, r0
  3e:	623b      	str	r3, [r7, #32]
  40:	2301      	movs	r3, #1
  42:	f887 3027 	strb.w	r3, [r7, #39]	; 0x27
  46:	f107 0220 	add.w	r2, r7, #32
  4a:	f107 0327 	add.w	r3, r7, #39	; 0x27
  4e:	68f8      	ldr	r0, [r7, #12]
  50:	4611      	mov	r1, r2
  52:	461a      	mov	r2, r3
  54:	f7ff fffe 	bl	0 <_ZNSt8_Rb_treeIjSt4pairIKjP6BBInfoESt10_Select1stIS4_ESt4lessIjESaIS4_EE16_M_insert_uniqueERKS4_>
  58:	e012      	b.n	80 <_ZNSt8_Rb_treeIjSt4pairIKjP6BBInfoESt10_Select1stIS4_ESt4lessIjESaIS4_EE16_M_insert_uniqueERKS4_+0x80>
  5a:	697b      	ldr	r3, [r7, #20]
  5c:	f107 0228 	add.w	r2, r7, #40	; 0x28
  60:	4610      	mov	r0, r2
  62:	4619      	mov	r1, r3
  64:	f7ff fffe 	bl	0 <_ZNSt8_Rb_treeIjSt4pairIKjP6BBInfoESt10_Select1stIS4_ESt4lessIjESaIS4_EE16_M_insert_uniqueERKS4_>
  68:	2300      	movs	r3, #0
  6a:	f887 302f 	strb.w	r3, [r7, #47]	; 0x2f
  6e:	f107 0228 	add.w	r2, r7, #40	; 0x28
  72:	f107 032f 	add.w	r3, r7, #47	; 0x2f
  76:	68f8      	ldr	r0, [r7, #12]
  78:	4611      	mov	r1, r2
  7a:	461a      	mov	r2, r3
  7c:	f7ff fffe 	bl	0 <_ZNSt8_Rb_treeIjSt4pairIKjP6BBInfoESt10_Select1stIS4_ESt4lessIjESaIS4_EE16_M_insert_uniqueERKS4_>
  80:	68f8      	ldr	r0, [r7, #12]
  82:	3730      	adds	r7, #48	; 0x30
  84:	46bd      	mov	sp, r7
  86:	bd80      	pop	{r7, pc}

Disassembly of section .text._ZNSt8_Rb_treeIjSt4pairIKjP6BBInfoESt10_Select1stIS4_ESt4lessIjESaIS4_EE4findERS1_:

00000000 <_ZNSt8_Rb_treeIjSt4pairIKjP6BBInfoESt10_Select1stIS4_ESt4lessIjESaIS4_EE4findERS1_>:
   0:	b5b0      	push	{r4, r5, r7, lr}
   2:	b084      	sub	sp, #16
   4:	af00      	add	r7, sp, #0
   6:	6078      	str	r0, [r7, #4]
   8:	6039      	str	r1, [r7, #0]
   a:	6878      	ldr	r0, [r7, #4]
   c:	f7ff fffe 	bl	0 <_ZNSt8_Rb_treeIjSt4pairIKjP6BBInfoESt10_Select1stIS4_ESt4lessIjESaIS4_EE4findERS1_>
  10:	4604      	mov	r4, r0
  12:	6878      	ldr	r0, [r7, #4]
  14:	f7ff fffe 	bl	0 <_ZNSt8_Rb_treeIjSt4pairIKjP6BBInfoESt10_Select1stIS4_ESt4lessIjESaIS4_EE4findERS1_>
  18:	4603      	mov	r3, r0
  1a:	6878      	ldr	r0, [r7, #4]
  1c:	4621      	mov	r1, r4
  1e:	461a      	mov	r2, r3
  20:	683b      	ldr	r3, [r7, #0]
  22:	f7ff fffe 	bl	0 <_ZNSt8_Rb_treeIjSt4pairIKjP6BBInfoESt10_Select1stIS4_ESt4lessIjESaIS4_EE4findERS1_>
  26:	4603      	mov	r3, r0
  28:	60bb      	str	r3, [r7, #8]
  2a:	6878      	ldr	r0, [r7, #4]
  2c:	f7ff fffe 	bl	0 <_ZNSt8_Rb_treeIjSt4pairIKjP6BBInfoESt10_Select1stIS4_ESt4lessIjESaIS4_EE4findERS1_>
  30:	4603      	mov	r3, r0
  32:	60fb      	str	r3, [r7, #12]
  34:	2401      	movs	r4, #1
  36:	f107 0208 	add.w	r2, r7, #8
  3a:	f107 030c 	add.w	r3, r7, #12
  3e:	4610      	mov	r0, r2
  40:	4619      	mov	r1, r3
  42:	f7ff fffe 	bl	0 <_ZNSt8_Rb_treeIjSt4pairIKjP6BBInfoESt10_Select1stIS4_ESt4lessIjESaIS4_EE4findERS1_>
  46:	4603      	mov	r3, r0
  48:	2b00      	cmp	r3, #0
  4a:	d10d      	bne.n	68 <_ZNSt8_Rb_treeIjSt4pairIKjP6BBInfoESt10_Select1stIS4_ESt4lessIjESaIS4_EE4findERS1_+0x68>
  4c:	687d      	ldr	r5, [r7, #4]
  4e:	68bb      	ldr	r3, [r7, #8]
  50:	4618      	mov	r0, r3
  52:	f7ff fffe 	bl	0 <_ZNSt8_Rb_treeIjSt4pairIKjP6BBInfoESt10_Select1stIS4_ESt4lessIjESaIS4_EE4findERS1_>
  56:	4603      	mov	r3, r0
  58:	4628      	mov	r0, r5
  5a:	6839      	ldr	r1, [r7, #0]
  5c:	461a      	mov	r2, r3
  5e:	f7ff fffe 	bl	0 <_ZNSt8_Rb_treeIjSt4pairIKjP6BBInfoESt10_Select1stIS4_ESt4lessIjESaIS4_EE4findERS1_>
  62:	4603      	mov	r3, r0
  64:	2b00      	cmp	r3, #0
  66:	d004      	beq.n	72 <_ZNSt8_Rb_treeIjSt4pairIKjP6BBInfoESt10_Select1stIS4_ESt4lessIjESaIS4_EE4findERS1_+0x72>
  68:	6878      	ldr	r0, [r7, #4]
  6a:	f7ff fffe 	bl	0 <_ZNSt8_Rb_treeIjSt4pairIKjP6BBInfoESt10_Select1stIS4_ESt4lessIjESaIS4_EE4findERS1_>
  6e:	4603      	mov	r3, r0
  70:	e000      	b.n	74 <_ZNSt8_Rb_treeIjSt4pairIKjP6BBInfoESt10_Select1stIS4_ESt4lessIjESaIS4_EE4findERS1_+0x74>
  72:	68bb      	ldr	r3, [r7, #8]
  74:	2c00      	cmp	r4, #0
  76:	e003      	b.n	80 <_ZNSt8_Rb_treeIjSt4pairIKjP6BBInfoESt10_Select1stIS4_ESt4lessIjESaIS4_EE4findERS1_+0x80>
  78:	2c00      	cmp	r4, #0
  7a:	bf00      	nop
  7c:	f7ff fffe 	bl	0 <__cxa_end_cleanup>
  80:	4618      	mov	r0, r3
  82:	3710      	adds	r7, #16
  84:	46bd      	mov	sp, r7
  86:	bdb0      	pop	{r4, r5, r7, pc}

Disassembly of section .text._ZNSt13_Rb_tree_nodeISt4pairIKjP6BBInfoEE9_M_valptrEv:

00000000 <_ZNSt13_Rb_tree_nodeISt4pairIKjP6BBInfoEE9_M_valptrEv>:
   0:	b580      	push	{r7, lr}
   2:	b082      	sub	sp, #8
   4:	af00      	add	r7, sp, #0
   6:	6078      	str	r0, [r7, #4]
   8:	687b      	ldr	r3, [r7, #4]
   a:	3310      	adds	r3, #16
   c:	4618      	mov	r0, r3
   e:	f7ff fffe 	bl	0 <_ZNSt13_Rb_tree_nodeISt4pairIKjP6BBInfoEE9_M_valptrEv>
  12:	4603      	mov	r3, r0
  14:	4618      	mov	r0, r3
  16:	3708      	adds	r7, #8
  18:	46bd      	mov	sp, r7
  1a:	bd80      	pop	{r7, pc}

Disassembly of section .text._ZNSt5dequeIjSaIjEE4backEv:

00000000 <_ZNSt5dequeIjSaIjEE4backEv>:
   0:	b580      	push	{r7, lr}
   2:	b086      	sub	sp, #24
   4:	af00      	add	r7, sp, #0
   6:	6078      	str	r0, [r7, #4]
   8:	f107 0308 	add.w	r3, r7, #8
   c:	4618      	mov	r0, r3
   e:	6879      	ldr	r1, [r7, #4]
  10:	f7ff fffe 	bl	0 <_ZNSt5dequeIjSaIjEE4backEv>
  14:	f107 0308 	add.w	r3, r7, #8
  18:	4618      	mov	r0, r3
  1a:	f7ff fffe 	bl	0 <_ZNSt5dequeIjSaIjEE4backEv>
  1e:	f107 0308 	add.w	r3, r7, #8
  22:	4618      	mov	r0, r3
  24:	f7ff fffe 	bl	0 <_ZNSt5dequeIjSaIjEE4backEv>
  28:	4603      	mov	r3, r0
  2a:	4618      	mov	r0, r3
  2c:	3718      	adds	r7, #24
  2e:	46bd      	mov	sp, r7
  30:	bd80      	pop	{r7, pc}
  32:	bf00      	nop

Disassembly of section .text._ZNSt5dequeIjSaIjEE8pop_backEv:

00000000 <_ZNSt5dequeIjSaIjEE8pop_backEv>:
   0:	b580      	push	{r7, lr}
   2:	b082      	sub	sp, #8
   4:	af00      	add	r7, sp, #0
   6:	6078      	str	r0, [r7, #4]
   8:	687b      	ldr	r3, [r7, #4]
   a:	699a      	ldr	r2, [r3, #24]
   c:	687b      	ldr	r3, [r7, #4]
   e:	69db      	ldr	r3, [r3, #28]
  10:	429a      	cmp	r2, r3
  12:	d00c      	beq.n	2e <_ZNSt5dequeIjSaIjEE8pop_backEv+0x2e>
  14:	687b      	ldr	r3, [r7, #4]
  16:	699b      	ldr	r3, [r3, #24]
  18:	1f1a      	subs	r2, r3, #4
  1a:	687b      	ldr	r3, [r7, #4]
  1c:	619a      	str	r2, [r3, #24]
  1e:	687a      	ldr	r2, [r7, #4]
  20:	687b      	ldr	r3, [r7, #4]
  22:	699b      	ldr	r3, [r3, #24]
  24:	4610      	mov	r0, r2
  26:	4619      	mov	r1, r3
  28:	f7ff fffe 	bl	0 <_ZNSt5dequeIjSaIjEE8pop_backEv>
  2c:	e002      	b.n	34 <_ZNSt5dequeIjSaIjEE8pop_backEv+0x34>
  2e:	6878      	ldr	r0, [r7, #4]
  30:	f7ff fffe 	bl	0 <_ZNSt5dequeIjSaIjEE8pop_backEv>
  34:	3708      	adds	r7, #8
  36:	46bd      	mov	sp, r7
  38:	bd80      	pop	{r7, pc}
  3a:	bf00      	nop

Disassembly of section .text._ZNSt5dequeIjSaIjEE9push_backERKj:

00000000 <_ZNSt5dequeIjSaIjEE9push_backERKj>:
   0:	b580      	push	{r7, lr}
   2:	b082      	sub	sp, #8
   4:	af00      	add	r7, sp, #0
   6:	6078      	str	r0, [r7, #4]
   8:	6039      	str	r1, [r7, #0]
   a:	687b      	ldr	r3, [r7, #4]
   c:	699a      	ldr	r2, [r3, #24]
   e:	687b      	ldr	r3, [r7, #4]
  10:	6a1b      	ldr	r3, [r3, #32]
  12:	3b04      	subs	r3, #4
  14:	429a      	cmp	r2, r3
  16:	d00d      	beq.n	34 <_ZNSt5dequeIjSaIjEE9push_backERKj+0x34>
  18:	687a      	ldr	r2, [r7, #4]
  1a:	687b      	ldr	r3, [r7, #4]
  1c:	699b      	ldr	r3, [r3, #24]
  1e:	4610      	mov	r0, r2
  20:	4619      	mov	r1, r3
  22:	683a      	ldr	r2, [r7, #0]
  24:	f7ff fffe 	bl	0 <_ZNSt5dequeIjSaIjEE9push_backERKj>
  28:	687b      	ldr	r3, [r7, #4]
  2a:	699b      	ldr	r3, [r3, #24]
  2c:	1d1a      	adds	r2, r3, #4
  2e:	687b      	ldr	r3, [r7, #4]
  30:	619a      	str	r2, [r3, #24]
  32:	e003      	b.n	3c <_ZNSt5dequeIjSaIjEE9push_backERKj+0x3c>
  34:	6878      	ldr	r0, [r7, #4]
  36:	6839      	ldr	r1, [r7, #0]
  38:	f7ff fffe 	bl	0 <_ZNSt5dequeIjSaIjEE9push_backERKj>
  3c:	3708      	adds	r7, #8
  3e:	46bd      	mov	sp, r7
  40:	bd80      	pop	{r7, pc}
  42:	bf00      	nop

Disassembly of section .text._ZNSt11_Deque_baseIjSaIjEE11_Deque_implC2Ev:

00000000 <_ZNSt11_Deque_baseIjSaIjEE11_Deque_implC1Ev>:
   0:	b580      	push	{r7, lr}
   2:	b082      	sub	sp, #8
   4:	af00      	add	r7, sp, #0
   6:	6078      	str	r0, [r7, #4]
   8:	6878      	ldr	r0, [r7, #4]
   a:	f7ff fffe 	bl	0 <_ZNSt11_Deque_baseIjSaIjEE11_Deque_implC1Ev>
   e:	687b      	ldr	r3, [r7, #4]
  10:	2200      	movs	r2, #0
  12:	601a      	str	r2, [r3, #0]
  14:	687b      	ldr	r3, [r7, #4]
  16:	2200      	movs	r2, #0
  18:	605a      	str	r2, [r3, #4]
  1a:	687b      	ldr	r3, [r7, #4]
  1c:	3308      	adds	r3, #8
  1e:	4618      	mov	r0, r3
  20:	f7ff fffe 	bl	0 <_ZNSt11_Deque_baseIjSaIjEE11_Deque_implC1Ev>
  24:	687b      	ldr	r3, [r7, #4]
  26:	3318      	adds	r3, #24
  28:	4618      	mov	r0, r3
  2a:	f7ff fffe 	bl	0 <_ZNSt11_Deque_baseIjSaIjEE11_Deque_implC1Ev>
  2e:	687b      	ldr	r3, [r7, #4]
  30:	4618      	mov	r0, r3
  32:	3708      	adds	r7, #8
  34:	46bd      	mov	sp, r7
  36:	bd80      	pop	{r7, pc}

Disassembly of section .text._ZNSaIjED2Ev:

00000000 <_ZNSaIjED1Ev>:
   0:	b580      	push	{r7, lr}
   2:	b082      	sub	sp, #8
   4:	af00      	add	r7, sp, #0
   6:	6078      	str	r0, [r7, #4]
   8:	6878      	ldr	r0, [r7, #4]
   a:	f7ff fffe 	bl	0 <_ZNSaIjED1Ev>
   e:	687b      	ldr	r3, [r7, #4]
  10:	4618      	mov	r0, r3
  12:	3708      	adds	r7, #8
  14:	46bd      	mov	sp, r7
  16:	bd80      	pop	{r7, pc}

Disassembly of section .text._ZNSt11_Deque_baseIjSaIjEE17_M_initialize_mapEj:

00000000 <_ZNSt11_Deque_baseIjSaIjEE17_M_initialize_mapEj>:
   0:	b590      	push	{r4, r7, lr}
   2:	b089      	sub	sp, #36	; 0x24
   4:	af00      	add	r7, sp, #0
   6:	6078      	str	r0, [r7, #4]
   8:	6039      	str	r1, [r7, #0]
   a:	2004      	movs	r0, #4
   c:	f7ff fffe 	bl	0 <_ZNSt11_Deque_baseIjSaIjEE17_M_initialize_mapEj>
  10:	4602      	mov	r2, r0
  12:	683b      	ldr	r3, [r7, #0]
  14:	fbb3 f3f2 	udiv	r3, r3, r2
  18:	3301      	adds	r3, #1
  1a:	61fb      	str	r3, [r7, #28]
  1c:	2308      	movs	r3, #8
  1e:	60fb      	str	r3, [r7, #12]
  20:	69fb      	ldr	r3, [r7, #28]
  22:	3302      	adds	r3, #2
  24:	613b      	str	r3, [r7, #16]
  26:	f107 020c 	add.w	r2, r7, #12
  2a:	f107 0310 	add.w	r3, r7, #16
  2e:	4610      	mov	r0, r2
  30:	4619      	mov	r1, r3
  32:	f7ff fffe 	bl	0 <_ZNSt11_Deque_baseIjSaIjEE17_M_initialize_mapEj>
  36:	4603      	mov	r3, r0
  38:	681a      	ldr	r2, [r3, #0]
  3a:	687b      	ldr	r3, [r7, #4]
  3c:	605a      	str	r2, [r3, #4]
  3e:	687b      	ldr	r3, [r7, #4]
  40:	685b      	ldr	r3, [r3, #4]
  42:	6878      	ldr	r0, [r7, #4]
  44:	4619      	mov	r1, r3
  46:	f7ff fffe 	bl	0 <_ZNSt11_Deque_baseIjSaIjEE17_M_initialize_mapEj>
  4a:	4602      	mov	r2, r0
  4c:	687b      	ldr	r3, [r7, #4]
  4e:	601a      	str	r2, [r3, #0]
  50:	687b      	ldr	r3, [r7, #4]
  52:	681a      	ldr	r2, [r3, #0]
  54:	687b      	ldr	r3, [r7, #4]
  56:	6859      	ldr	r1, [r3, #4]
  58:	69fb      	ldr	r3, [r7, #28]
  5a:	1acb      	subs	r3, r1, r3
  5c:	085b      	lsrs	r3, r3, #1
  5e:	009b      	lsls	r3, r3, #2
  60:	4413      	add	r3, r2
  62:	61bb      	str	r3, [r7, #24]
  64:	69fb      	ldr	r3, [r7, #28]
  66:	009b      	lsls	r3, r3, #2
  68:	69ba      	ldr	r2, [r7, #24]
  6a:	4413      	add	r3, r2
  6c:	617b      	str	r3, [r7, #20]
  6e:	6878      	ldr	r0, [r7, #4]
  70:	69b9      	ldr	r1, [r7, #24]
  72:	697a      	ldr	r2, [r7, #20]
  74:	f7ff fffe 	bl	0 <_ZNSt11_Deque_baseIjSaIjEE17_M_initialize_mapEj>
  78:	687b      	ldr	r3, [r7, #4]
  7a:	3308      	adds	r3, #8
  7c:	4618      	mov	r0, r3
  7e:	69b9      	ldr	r1, [r7, #24]
  80:	f7ff fffe 	bl	0 <_ZNSt11_Deque_baseIjSaIjEE17_M_initialize_mapEj>
  84:	687b      	ldr	r3, [r7, #4]
  86:	f103 0218 	add.w	r2, r3, #24
  8a:	697b      	ldr	r3, [r7, #20]
  8c:	3b04      	subs	r3, #4
  8e:	4610      	mov	r0, r2
  90:	4619      	mov	r1, r3
  92:	f7ff fffe 	bl	0 <_ZNSt11_Deque_baseIjSaIjEE17_M_initialize_mapEj>
  96:	687b      	ldr	r3, [r7, #4]
  98:	68da      	ldr	r2, [r3, #12]
  9a:	687b      	ldr	r3, [r7, #4]
  9c:	609a      	str	r2, [r3, #8]
  9e:	687b      	ldr	r3, [r7, #4]
  a0:	69dc      	ldr	r4, [r3, #28]
  a2:	2004      	movs	r0, #4
  a4:	f7ff fffe 	bl	0 <_ZNSt11_Deque_baseIjSaIjEE17_M_initialize_mapEj>
  a8:	4602      	mov	r2, r0
  aa:	683b      	ldr	r3, [r7, #0]
  ac:	fbb3 f1f2 	udiv	r1, r3, r2
  b0:	fb02 f201 	mul.w	r2, r2, r1
  b4:	1a9b      	subs	r3, r3, r2
  b6:	009b      	lsls	r3, r3, #2
  b8:	18e2      	adds	r2, r4, r3
  ba:	687b      	ldr	r3, [r7, #4]
  bc:	619a      	str	r2, [r3, #24]
  be:	e018      	b.n	f2 <_ZNSt11_Deque_baseIjSaIjEE17_M_initialize_mapEj+0xf2>
  c0:	f7ff fffe 	bl	0 <__cxa_end_catch>
  c4:	f7ff fffe 	bl	0 <__cxa_end_cleanup>
  c8:	4603      	mov	r3, r0
  ca:	4618      	mov	r0, r3
  cc:	f7ff fffe 	bl	0 <__cxa_begin_catch>
  d0:	687b      	ldr	r3, [r7, #4]
  d2:	681a      	ldr	r2, [r3, #0]
  d4:	687b      	ldr	r3, [r7, #4]
  d6:	685b      	ldr	r3, [r3, #4]
  d8:	6878      	ldr	r0, [r7, #4]
  da:	4611      	mov	r1, r2
  dc:	461a      	mov	r2, r3
  de:	f7ff fffe 	bl	0 <_ZNSt11_Deque_baseIjSaIjEE17_M_initialize_mapEj>
  e2:	687b      	ldr	r3, [r7, #4]
  e4:	2200      	movs	r2, #0
  e6:	601a      	str	r2, [r3, #0]
  e8:	687b      	ldr	r3, [r7, #4]
  ea:	2200      	movs	r2, #0
  ec:	605a      	str	r2, [r3, #4]
  ee:	f7ff fffe 	bl	0 <__cxa_rethrow>
  f2:	3724      	adds	r7, #36	; 0x24
  f4:	46bd      	mov	sp, r7
  f6:	bd90      	pop	{r4, r7, pc}

Disassembly of section .text._ZNSt11_Deque_baseIjSaIjEE16_M_destroy_nodesEPPjS3_:

00000000 <_ZNSt11_Deque_baseIjSaIjEE16_M_destroy_nodesEPPjS3_>:
   0:	b580      	push	{r7, lr}
   2:	b086      	sub	sp, #24
   4:	af00      	add	r7, sp, #0
   6:	60f8      	str	r0, [r7, #12]
   8:	60b9      	str	r1, [r7, #8]
   a:	607a      	str	r2, [r7, #4]
   c:	68bb      	ldr	r3, [r7, #8]
   e:	617b      	str	r3, [r7, #20]
  10:	e008      	b.n	24 <_ZNSt11_Deque_baseIjSaIjEE16_M_destroy_nodesEPPjS3_+0x24>
  12:	697b      	ldr	r3, [r7, #20]
  14:	681b      	ldr	r3, [r3, #0]
  16:	68f8      	ldr	r0, [r7, #12]
  18:	4619      	mov	r1, r3
  1a:	f7ff fffe 	bl	0 <_ZNSt11_Deque_baseIjSaIjEE16_M_destroy_nodesEPPjS3_>
  1e:	697b      	ldr	r3, [r7, #20]
  20:	3304      	adds	r3, #4
  22:	617b      	str	r3, [r7, #20]
  24:	697a      	ldr	r2, [r7, #20]
  26:	687b      	ldr	r3, [r7, #4]
  28:	429a      	cmp	r2, r3
  2a:	d3f2      	bcc.n	12 <_ZNSt11_Deque_baseIjSaIjEE16_M_destroy_nodesEPPjS3_+0x12>
  2c:	3718      	adds	r7, #24
  2e:	46bd      	mov	sp, r7
  30:	bd80      	pop	{r7, pc}
  32:	bf00      	nop

Disassembly of section .text._ZNSt11_Deque_baseIjSaIjEE17_M_deallocate_mapEPPjj:

00000000 <_ZNSt11_Deque_baseIjSaIjEE17_M_deallocate_mapEPPjj>:
   0:	b580      	push	{r7, lr}
   2:	b086      	sub	sp, #24
   4:	af00      	add	r7, sp, #0
   6:	60f8      	str	r0, [r7, #12]
   8:	60b9      	str	r1, [r7, #8]
   a:	607a      	str	r2, [r7, #4]
   c:	f107 0314 	add.w	r3, r7, #20
  10:	4618      	mov	r0, r3
  12:	68f9      	ldr	r1, [r7, #12]
  14:	f7ff fffe 	bl	0 <_ZNSt11_Deque_baseIjSaIjEE17_M_deallocate_mapEPPjj>
  18:	f107 0314 	add.w	r3, r7, #20
  1c:	4618      	mov	r0, r3
  1e:	68b9      	ldr	r1, [r7, #8]
  20:	687a      	ldr	r2, [r7, #4]
  22:	f7ff fffe 	bl	0 <_ZNSt11_Deque_baseIjSaIjEE17_M_deallocate_mapEPPjj>
  26:	f107 0314 	add.w	r3, r7, #20
  2a:	4618      	mov	r0, r3
  2c:	f7ff fffe 	bl	0 <_ZNSt11_Deque_baseIjSaIjEE17_M_deallocate_mapEPPjj>
  30:	3718      	adds	r7, #24
  32:	46bd      	mov	sp, r7
  34:	bd80      	pop	{r7, pc}
  36:	bf00      	nop

Disassembly of section .text._ZNKSt11_Deque_baseIjSaIjEE19_M_get_Tp_allocatorEv:

00000000 <_ZNKSt11_Deque_baseIjSaIjEE19_M_get_Tp_allocatorEv>:
   0:	b480      	push	{r7}
   2:	b083      	sub	sp, #12
   4:	af00      	add	r7, sp, #0
   6:	6078      	str	r0, [r7, #4]
   8:	687b      	ldr	r3, [r7, #4]
   a:	4618      	mov	r0, r3
   c:	370c      	adds	r7, #12
   e:	46bd      	mov	sp, r7
  10:	f85d 7b04 	ldr.w	r7, [sp], #4
  14:	4770      	bx	lr
  16:	bf00      	nop

Disassembly of section .text._ZNKSt5dequeIjSaIjEE4sizeEv:

00000000 <_ZNKSt5dequeIjSaIjEE4sizeEv>:
   0:	b580      	push	{r7, lr}
   2:	b082      	sub	sp, #8
   4:	af00      	add	r7, sp, #0
   6:	6078      	str	r0, [r7, #4]
   8:	687b      	ldr	r3, [r7, #4]
   a:	f103 0218 	add.w	r2, r3, #24
   e:	687b      	ldr	r3, [r7, #4]
  10:	3308      	adds	r3, #8
  12:	4610      	mov	r0, r2
  14:	4619      	mov	r1, r3
  16:	f7ff fffe 	bl	0 <_ZNKSt5dequeIjSaIjEE4sizeEv>
  1a:	4603      	mov	r3, r0
  1c:	4618      	mov	r0, r3
  1e:	3708      	adds	r7, #8
  20:	46bd      	mov	sp, r7
  22:	bd80      	pop	{r7, pc}

Disassembly of section .text._ZNSt11_Deque_baseIjSaIjEEC2ERKS0_j:

00000000 <_ZNSt11_Deque_baseIjSaIjEEC1ERKS0_j>:
   0:	b580      	push	{r7, lr}
   2:	b084      	sub	sp, #16
   4:	af00      	add	r7, sp, #0
   6:	60f8      	str	r0, [r7, #12]
   8:	60b9      	str	r1, [r7, #8]
   a:	607a      	str	r2, [r7, #4]
   c:	68fb      	ldr	r3, [r7, #12]
   e:	4618      	mov	r0, r3
  10:	68b9      	ldr	r1, [r7, #8]
  12:	f7ff fffe 	bl	0 <_ZNSt11_Deque_baseIjSaIjEEC1ERKS0_j>
  16:	68f8      	ldr	r0, [r7, #12]
  18:	6879      	ldr	r1, [r7, #4]
  1a:	f7ff fffe 	bl	0 <_ZNSt11_Deque_baseIjSaIjEEC1ERKS0_j>
  1e:	68fb      	ldr	r3, [r7, #12]
  20:	e005      	b.n	2e <_ZNSt11_Deque_baseIjSaIjEEC1ERKS0_j+0x2e>
  22:	68fb      	ldr	r3, [r7, #12]
  24:	4618      	mov	r0, r3
  26:	f7ff fffe 	bl	0 <_ZNSt11_Deque_baseIjSaIjEEC1ERKS0_j>
  2a:	f7ff fffe 	bl	0 <__cxa_end_cleanup>
  2e:	4618      	mov	r0, r3
  30:	3710      	adds	r7, #16
  32:	46bd      	mov	sp, r7
  34:	bd80      	pop	{r7, pc}
  36:	bf00      	nop

Disassembly of section .text._ZNKSt5dequeIjSaIjEE5beginEv:

00000000 <_ZNKSt5dequeIjSaIjEE5beginEv>:
   0:	b580      	push	{r7, lr}
   2:	b082      	sub	sp, #8
   4:	af00      	add	r7, sp, #0
   6:	6078      	str	r0, [r7, #4]
   8:	6039      	str	r1, [r7, #0]
   a:	683b      	ldr	r3, [r7, #0]
   c:	3308      	adds	r3, #8
   e:	6878      	ldr	r0, [r7, #4]
  10:	4619      	mov	r1, r3
  12:	f7ff fffe 	bl	0 <_ZNKSt5dequeIjSaIjEE5beginEv>
  16:	6878      	ldr	r0, [r7, #4]
  18:	3708      	adds	r7, #8
  1a:	46bd      	mov	sp, r7
  1c:	bd80      	pop	{r7, pc}
  1e:	bf00      	nop

Disassembly of section .text._ZNKSt5dequeIjSaIjEE3endEv:

00000000 <_ZNKSt5dequeIjSaIjEE3endEv>:
   0:	b580      	push	{r7, lr}
   2:	b082      	sub	sp, #8
   4:	af00      	add	r7, sp, #0
   6:	6078      	str	r0, [r7, #4]
   8:	6039      	str	r1, [r7, #0]
   a:	683b      	ldr	r3, [r7, #0]
   c:	3318      	adds	r3, #24
   e:	6878      	ldr	r0, [r7, #4]
  10:	4619      	mov	r1, r3
  12:	f7ff fffe 	bl	0 <_ZNKSt5dequeIjSaIjEE3endEv>
  16:	6878      	ldr	r0, [r7, #4]
  18:	3708      	adds	r7, #8
  1a:	46bd      	mov	sp, r7
  1c:	bd80      	pop	{r7, pc}
  1e:	bf00      	nop

Disassembly of section .text._ZSt22__uninitialized_copy_aISt15_Deque_iteratorIjRKjPS1_ES0_IjRjPjEjET0_T_S9_S8_RSaIT1_E:

00000000 <_ZSt22__uninitialized_copy_aISt15_Deque_iteratorIjRKjPS1_ES0_IjRjPjEjET0_T_S9_S8_RSaIT1_E>:
   0:	b084      	sub	sp, #16
   2:	b5b0      	push	{r4, r5, r7, lr}
   4:	b08c      	sub	sp, #48	; 0x30
   6:	af06      	add	r7, sp, #24
   8:	6078      	str	r0, [r7, #4]
   a:	f107 002c 	add.w	r0, r7, #44	; 0x2c
   e:	e880 000e 	stmia.w	r0, {r1, r2, r3}
  12:	f107 0308 	add.w	r3, r7, #8
  16:	4618      	mov	r0, r3
  18:	6cf9      	ldr	r1, [r7, #76]	; 0x4c
  1a:	f7ff fffe 	bl	0 <_ZSt22__uninitialized_copy_aISt15_Deque_iteratorIjRKjPS1_ES0_IjRjPjEjET0_T_S9_S8_RSaIT1_E>
  1e:	687d      	ldr	r5, [r7, #4]
  20:	ac01      	add	r4, sp, #4
  22:	f107 033c 	add.w	r3, r7, #60	; 0x3c
  26:	cb0f      	ldmia	r3, {r0, r1, r2, r3}
  28:	e884 000f 	stmia.w	r4, {r0, r1, r2, r3}
  2c:	f107 0308 	add.w	r3, r7, #8
  30:	9305      	str	r3, [sp, #20]
  32:	6bbb      	ldr	r3, [r7, #56]	; 0x38
  34:	9300      	str	r3, [sp, #0]
  36:	f107 032c 	add.w	r3, r7, #44	; 0x2c
  3a:	cb0e      	ldmia	r3, {r1, r2, r3}
  3c:	4628      	mov	r0, r5
  3e:	f7ff fffe 	bl	0 <_ZSt22__uninitialized_copy_aISt15_Deque_iteratorIjRKjPS1_ES0_IjRjPjEjET0_T_S9_S8_RSaIT1_E>
  42:	6878      	ldr	r0, [r7, #4]
  44:	3718      	adds	r7, #24
  46:	46bd      	mov	sp, r7
  48:	e8bd 40b0 	ldmia.w	sp!, {r4, r5, r7, lr}
  4c:	b004      	add	sp, #16
  4e:	4770      	bx	lr

Disassembly of section .text._ZNSt8_Rb_treeIjSt4pairIKjP6BBInfoESt10_Select1stIS4_ESt4lessIjESaIS4_EE24_M_get_insert_unique_posERS1_:

00000000 <_ZNSt8_Rb_treeIjSt4pairIKjP6BBInfoESt10_Select1stIS4_ESt4lessIjESaIS4_EE24_M_get_insert_unique_posERS1_>:
   0:	b590      	push	{r4, r7, lr}
   2:	b08f      	sub	sp, #60	; 0x3c
   4:	af00      	add	r7, sp, #0
   6:	60f8      	str	r0, [r7, #12]
   8:	60b9      	str	r1, [r7, #8]
   a:	607a      	str	r2, [r7, #4]
   c:	68b8      	ldr	r0, [r7, #8]
   e:	f7ff fffe 	bl	0 <_ZNSt8_Rb_treeIjSt4pairIKjP6BBInfoESt10_Select1stIS4_ESt4lessIjESaIS4_EE24_M_get_insert_unique_posERS1_>
  12:	6378      	str	r0, [r7, #52]	; 0x34
  14:	68b8      	ldr	r0, [r7, #8]
  16:	f7ff fffe 	bl	0 <_ZNSt8_Rb_treeIjSt4pairIKjP6BBInfoESt10_Select1stIS4_ESt4lessIjESaIS4_EE24_M_get_insert_unique_posERS1_>
  1a:	6338      	str	r0, [r7, #48]	; 0x30
  1c:	2301      	movs	r3, #1
  1e:	f887 302f 	strb.w	r3, [r7, #47]	; 0x2f
  22:	e01c      	b.n	5e <_ZNSt8_Rb_treeIjSt4pairIKjP6BBInfoESt10_Select1stIS4_ESt4lessIjESaIS4_EE24_M_get_insert_unique_posERS1_+0x5e>
  24:	6b7b      	ldr	r3, [r7, #52]	; 0x34
  26:	633b      	str	r3, [r7, #48]	; 0x30
  28:	68bc      	ldr	r4, [r7, #8]
  2a:	6b78      	ldr	r0, [r7, #52]	; 0x34
  2c:	f7ff fffe 	bl	0 <_ZNSt8_Rb_treeIjSt4pairIKjP6BBInfoESt10_Select1stIS4_ESt4lessIjESaIS4_EE24_M_get_insert_unique_posERS1_>
  30:	4603      	mov	r3, r0
  32:	4620      	mov	r0, r4
  34:	6879      	ldr	r1, [r7, #4]
  36:	461a      	mov	r2, r3
  38:	f7ff fffe 	bl	0 <_ZNSt8_Rb_treeIjSt4pairIKjP6BBInfoESt10_Select1stIS4_ESt4lessIjESaIS4_EE24_M_get_insert_unique_posERS1_>
  3c:	4603      	mov	r3, r0
  3e:	f887 302f 	strb.w	r3, [r7, #47]	; 0x2f
  42:	f897 302f 	ldrb.w	r3, [r7, #47]	; 0x2f
  46:	2b00      	cmp	r3, #0
  48:	d004      	beq.n	54 <_ZNSt8_Rb_treeIjSt4pairIKjP6BBInfoESt10_Select1stIS4_ESt4lessIjESaIS4_EE24_M_get_insert_unique_posERS1_+0x54>
  4a:	6b78      	ldr	r0, [r7, #52]	; 0x34
  4c:	f7ff fffe 	bl	0 <_ZNSt8_Rb_treeIjSt4pairIKjP6BBInfoESt10_Select1stIS4_ESt4lessIjESaIS4_EE24_M_get_insert_unique_posERS1_>
  50:	4603      	mov	r3, r0
  52:	e003      	b.n	5c <_ZNSt8_Rb_treeIjSt4pairIKjP6BBInfoESt10_Select1stIS4_ESt4lessIjESaIS4_EE24_M_get_insert_unique_posERS1_+0x5c>
  54:	6b78      	ldr	r0, [r7, #52]	; 0x34
  56:	f7ff fffe 	bl	0 <_ZNSt8_Rb_treeIjSt4pairIKjP6BBInfoESt10_Select1stIS4_ESt4lessIjESaIS4_EE24_M_get_insert_unique_posERS1_>
  5a:	4603      	mov	r3, r0
  5c:	637b      	str	r3, [r7, #52]	; 0x34
  5e:	6b7b      	ldr	r3, [r7, #52]	; 0x34
  60:	2b00      	cmp	r3, #0
  62:	d1df      	bne.n	24 <_ZNSt8_Rb_treeIjSt4pairIKjP6BBInfoESt10_Select1stIS4_ESt4lessIjESaIS4_EE24_M_get_insert_unique_posERS1_+0x24>
  64:	f107 0310 	add.w	r3, r7, #16
  68:	4618      	mov	r0, r3
  6a:	6b39      	ldr	r1, [r7, #48]	; 0x30
  6c:	f7ff fffe 	bl	0 <_ZNSt8_Rb_treeIjSt4pairIKjP6BBInfoESt10_Select1stIS4_ESt4lessIjESaIS4_EE24_M_get_insert_unique_posERS1_>
  70:	f897 302f 	ldrb.w	r3, [r7, #47]	; 0x2f
  74:	2b00      	cmp	r3, #0
  76:	d022      	beq.n	be <_ZNSt8_Rb_treeIjSt4pairIKjP6BBInfoESt10_Select1stIS4_ESt4lessIjESaIS4_EE24_M_get_insert_unique_posERS1_+0xbe>
  78:	68b8      	ldr	r0, [r7, #8]
  7a:	f7ff fffe 	bl	0 <_ZNSt8_Rb_treeIjSt4pairIKjP6BBInfoESt10_Select1stIS4_ESt4lessIjESaIS4_EE24_M_get_insert_unique_posERS1_>
  7e:	4603      	mov	r3, r0
  80:	617b      	str	r3, [r7, #20]
  82:	f107 0210 	add.w	r2, r7, #16
  86:	f107 0314 	add.w	r3, r7, #20
  8a:	4610      	mov	r0, r2
  8c:	4619      	mov	r1, r3
  8e:	f7ff fffe 	bl	0 <_ZNSt8_Rb_treeIjSt4pairIKjP6BBInfoESt10_Select1stIS4_ESt4lessIjESaIS4_EE24_M_get_insert_unique_posERS1_>
  92:	4603      	mov	r3, r0
  94:	2b00      	cmp	r3, #0
  96:	d00d      	beq.n	b4 <_ZNSt8_Rb_treeIjSt4pairIKjP6BBInfoESt10_Select1stIS4_ESt4lessIjESaIS4_EE24_M_get_insert_unique_posERS1_+0xb4>
  98:	6b7b      	ldr	r3, [r7, #52]	; 0x34
  9a:	61bb      	str	r3, [r7, #24]
  9c:	6b3b      	ldr	r3, [r7, #48]	; 0x30
  9e:	61fb      	str	r3, [r7, #28]
  a0:	f107 0218 	add.w	r2, r7, #24
  a4:	f107 031c 	add.w	r3, r7, #28
  a8:	68f8      	ldr	r0, [r7, #12]
  aa:	4611      	mov	r1, r2
  ac:	461a      	mov	r2, r3
  ae:	f7ff fffe 	bl	0 <_ZNSt8_Rb_treeIjSt4pairIKjP6BBInfoESt10_Select1stIS4_ESt4lessIjESaIS4_EE24_M_get_insert_unique_posERS1_>
  b2:	e02b      	b.n	10c <_ZNSt8_Rb_treeIjSt4pairIKjP6BBInfoESt10_Select1stIS4_ESt4lessIjESaIS4_EE24_M_get_insert_unique_posERS1_+0x10c>
  b4:	f107 0310 	add.w	r3, r7, #16
  b8:	4618      	mov	r0, r3
  ba:	f7ff fffe 	bl	0 <_ZNSt8_Rb_treeIjSt4pairIKjP6BBInfoESt10_Select1stIS4_ESt4lessIjESaIS4_EE24_M_get_insert_unique_posERS1_>
  be:	68bc      	ldr	r4, [r7, #8]
  c0:	693b      	ldr	r3, [r7, #16]
  c2:	4618      	mov	r0, r3
  c4:	f7ff fffe 	bl	0 <_ZNSt8_Rb_treeIjSt4pairIKjP6BBInfoESt10_Select1stIS4_ESt4lessIjESaIS4_EE24_M_get_insert_unique_posERS1_>
  c8:	4603      	mov	r3, r0
  ca:	4620      	mov	r0, r4
  cc:	4619      	mov	r1, r3
  ce:	687a      	ldr	r2, [r7, #4]
  d0:	f7ff fffe 	bl	0 <_ZNSt8_Rb_treeIjSt4pairIKjP6BBInfoESt10_Select1stIS4_ESt4lessIjESaIS4_EE24_M_get_insert_unique_posERS1_>
  d4:	4603      	mov	r3, r0
  d6:	2b00      	cmp	r3, #0
  d8:	d00d      	beq.n	f6 <_ZNSt8_Rb_treeIjSt4pairIKjP6BBInfoESt10_Select1stIS4_ESt4lessIjESaIS4_EE24_M_get_insert_unique_posERS1_+0xf6>
  da:	6b7b      	ldr	r3, [r7, #52]	; 0x34
  dc:	623b      	str	r3, [r7, #32]
  de:	6b3b      	ldr	r3, [r7, #48]	; 0x30
  e0:	627b      	str	r3, [r7, #36]	; 0x24
  e2:	f107 0220 	add.w	r2, r7, #32
  e6:	f107 0324 	add.w	r3, r7, #36	; 0x24
  ea:	68f8      	ldr	r0, [r7, #12]
  ec:	4611      	mov	r1, r2
  ee:	461a      	mov	r2, r3
  f0:	f7ff fffe 	bl	0 <_ZNSt8_Rb_treeIjSt4pairIKjP6BBInfoESt10_Select1stIS4_ESt4lessIjESaIS4_EE24_M_get_insert_unique_posERS1_>
  f4:	e00a      	b.n	10c <_ZNSt8_Rb_treeIjSt4pairIKjP6BBInfoESt10_Select1stIS4_ESt4lessIjESaIS4_EE24_M_get_insert_unique_posERS1_+0x10c>
  f6:	2300      	movs	r3, #0
  f8:	62bb      	str	r3, [r7, #40]	; 0x28
  fa:	f107 0210 	add.w	r2, r7, #16
  fe:	f107 0328 	add.w	r3, r7, #40	; 0x28
 102:	68f8      	ldr	r0, [r7, #12]
 104:	4611      	mov	r1, r2
 106:	461a      	mov	r2, r3
 108:	f7ff fffe 	bl	0 <_ZNSt8_Rb_treeIjSt4pairIKjP6BBInfoESt10_Select1stIS4_ESt4lessIjESaIS4_EE24_M_get_insert_unique_posERS1_>
 10c:	68f8      	ldr	r0, [r7, #12]
 10e:	373c      	adds	r7, #60	; 0x3c
 110:	46bd      	mov	sp, r7
 112:	bd90      	pop	{r4, r7, pc}

Disassembly of section .text._ZNKSt10_Select1stISt4pairIKjP6BBInfoEEclERKS4_:

00000000 <_ZNKSt10_Select1stISt4pairIKjP6BBInfoEEclERKS4_>:
   0:	b480      	push	{r7}
   2:	b083      	sub	sp, #12
   4:	af00      	add	r7, sp, #0
   6:	6078      	str	r0, [r7, #4]
   8:	6039      	str	r1, [r7, #0]
   a:	683b      	ldr	r3, [r7, #0]
   c:	4618      	mov	r0, r3
   e:	370c      	adds	r7, #12
  10:	46bd      	mov	sp, r7
  12:	f85d 7b04 	ldr.w	r7, [sp], #4
  16:	4770      	bx	lr

Disassembly of section .text._ZNSt8_Rb_treeIjSt4pairIKjP6BBInfoESt10_Select1stIS4_ESt4lessIjESaIS4_EE10_M_insert_EPSt18_Rb_tree_node_baseSC_RKS4_:

00000000 <_ZNSt8_Rb_treeIjSt4pairIKjP6BBInfoESt10_Select1stIS4_ESt4lessIjESaIS4_EE10_M_insert_EPSt18_Rb_tree_node_baseSC_RKS4_>:
   0:	b5f0      	push	{r4, r5, r6, r7, lr}
   2:	b089      	sub	sp, #36	; 0x24
   4:	af00      	add	r7, sp, #0
   6:	60f8      	str	r0, [r7, #12]
   8:	60b9      	str	r1, [r7, #8]
   a:	607a      	str	r2, [r7, #4]
   c:	603b      	str	r3, [r7, #0]
   e:	2400      	movs	r4, #0
  10:	68bb      	ldr	r3, [r7, #8]
  12:	2b00      	cmp	r3, #0
  14:	d11b      	bne.n	4e <_ZNSt8_Rb_treeIjSt4pairIKjP6BBInfoESt10_Select1stIS4_ESt4lessIjESaIS4_EE10_M_insert_EPSt18_Rb_tree_node_baseSC_RKS4_+0x4e>
  16:	68f8      	ldr	r0, [r7, #12]
  18:	f7ff fffe 	bl	0 <_ZNSt8_Rb_treeIjSt4pairIKjP6BBInfoESt10_Select1stIS4_ESt4lessIjESaIS4_EE10_M_insert_EPSt18_Rb_tree_node_baseSC_RKS4_>
  1c:	4602      	mov	r2, r0
  1e:	687b      	ldr	r3, [r7, #4]
  20:	429a      	cmp	r2, r3
  22:	d014      	beq.n	4e <_ZNSt8_Rb_treeIjSt4pairIKjP6BBInfoESt10_Select1stIS4_ESt4lessIjESaIS4_EE10_M_insert_EPSt18_Rb_tree_node_baseSC_RKS4_+0x4e>
  24:	68fd      	ldr	r5, [r7, #12]
  26:	2401      	movs	r4, #1
  28:	f107 0310 	add.w	r3, r7, #16
  2c:	4618      	mov	r0, r3
  2e:	6839      	ldr	r1, [r7, #0]
  30:	f7ff fffe 	bl	0 <_ZNSt8_Rb_treeIjSt4pairIKjP6BBInfoESt10_Select1stIS4_ESt4lessIjESaIS4_EE10_M_insert_EPSt18_Rb_tree_node_baseSC_RKS4_>
  34:	4606      	mov	r6, r0
  36:	6878      	ldr	r0, [r7, #4]
  38:	f7ff fffe 	bl	0 <_ZNSt8_Rb_treeIjSt4pairIKjP6BBInfoESt10_Select1stIS4_ESt4lessIjESaIS4_EE10_M_insert_EPSt18_Rb_tree_node_baseSC_RKS4_>
  3c:	4603      	mov	r3, r0
  3e:	4628      	mov	r0, r5
  40:	4631      	mov	r1, r6
  42:	461a      	mov	r2, r3
  44:	f7ff fffe 	bl	0 <_ZNSt8_Rb_treeIjSt4pairIKjP6BBInfoESt10_Select1stIS4_ESt4lessIjESaIS4_EE10_M_insert_EPSt18_Rb_tree_node_baseSC_RKS4_>
  48:	4603      	mov	r3, r0
  4a:	2b00      	cmp	r3, #0
  4c:	d001      	beq.n	52 <_ZNSt8_Rb_treeIjSt4pairIKjP6BBInfoESt10_Select1stIS4_ESt4lessIjESaIS4_EE10_M_insert_EPSt18_Rb_tree_node_baseSC_RKS4_+0x52>
  4e:	2301      	movs	r3, #1
  50:	e000      	b.n	54 <_ZNSt8_Rb_treeIjSt4pairIKjP6BBInfoESt10_Select1stIS4_ESt4lessIjESaIS4_EE10_M_insert_EPSt18_Rb_tree_node_baseSC_RKS4_+0x54>
  52:	2300      	movs	r3, #0
  54:	77fb      	strb	r3, [r7, #31]
  56:	2c00      	cmp	r4, #0
  58:	bf00      	nop
  5a:	68f8      	ldr	r0, [r7, #12]
  5c:	6839      	ldr	r1, [r7, #0]
  5e:	f7ff fffe 	bl	0 <_ZNSt8_Rb_treeIjSt4pairIKjP6BBInfoESt10_Select1stIS4_ESt4lessIjESaIS4_EE10_M_insert_EPSt18_Rb_tree_node_baseSC_RKS4_>
  62:	4603      	mov	r3, r0
  64:	61bb      	str	r3, [r7, #24]
  66:	68fb      	ldr	r3, [r7, #12]
  68:	3304      	adds	r3, #4
  6a:	7ffa      	ldrb	r2, [r7, #31]
  6c:	4610      	mov	r0, r2
  6e:	69b9      	ldr	r1, [r7, #24]
  70:	687a      	ldr	r2, [r7, #4]
  72:	f7ff fffe 	bl	0 <_ZSt29_Rb_tree_insert_and_rebalancebPSt18_Rb_tree_node_baseS0_RS_>
  76:	68fb      	ldr	r3, [r7, #12]
  78:	695b      	ldr	r3, [r3, #20]
  7a:	1c5a      	adds	r2, r3, #1
  7c:	68fb      	ldr	r3, [r7, #12]
  7e:	615a      	str	r2, [r3, #20]
  80:	f107 0314 	add.w	r3, r7, #20
  84:	4618      	mov	r0, r3
  86:	69b9      	ldr	r1, [r7, #24]
  88:	f7ff fffe 	bl	0 <_ZNSt8_Rb_treeIjSt4pairIKjP6BBInfoESt10_Select1stIS4_ESt4lessIjESaIS4_EE10_M_insert_EPSt18_Rb_tree_node_baseSC_RKS4_>
  8c:	697b      	ldr	r3, [r7, #20]
  8e:	e003      	b.n	98 <_ZNSt8_Rb_treeIjSt4pairIKjP6BBInfoESt10_Select1stIS4_ESt4lessIjESaIS4_EE10_M_insert_EPSt18_Rb_tree_node_baseSC_RKS4_+0x98>
  90:	2c00      	cmp	r4, #0
  92:	bf00      	nop
  94:	f7ff fffe 	bl	0 <__cxa_end_cleanup>
  98:	4618      	mov	r0, r3
  9a:	3724      	adds	r7, #36	; 0x24
  9c:	46bd      	mov	sp, r7
  9e:	bdf0      	pop	{r4, r5, r6, r7, pc}

Disassembly of section .text._ZNSt4pairISt17_Rb_tree_iteratorIS_IKjP6BBInfoEEbEC2ERKS5_RKb:

00000000 <_ZNSt4pairISt17_Rb_tree_iteratorIS_IKjP6BBInfoEEbEC1ERKS5_RKb>:
   0:	b480      	push	{r7}
   2:	b085      	sub	sp, #20
   4:	af00      	add	r7, sp, #0
   6:	60f8      	str	r0, [r7, #12]
   8:	60b9      	str	r1, [r7, #8]
   a:	607a      	str	r2, [r7, #4]
   c:	68fb      	ldr	r3, [r7, #12]
   e:	68ba      	ldr	r2, [r7, #8]
  10:	6812      	ldr	r2, [r2, #0]
  12:	601a      	str	r2, [r3, #0]
  14:	687b      	ldr	r3, [r7, #4]
  16:	781a      	ldrb	r2, [r3, #0]
  18:	68fb      	ldr	r3, [r7, #12]
  1a:	711a      	strb	r2, [r3, #4]
  1c:	68fb      	ldr	r3, [r7, #12]
  1e:	4618      	mov	r0, r3
  20:	3714      	adds	r7, #20
  22:	46bd      	mov	sp, r7
  24:	f85d 7b04 	ldr.w	r7, [sp], #4
  28:	4770      	bx	lr
  2a:	bf00      	nop

Disassembly of section .text._ZNSt17_Rb_tree_iteratorISt4pairIKjP6BBInfoEEC2EPSt13_Rb_tree_nodeIS4_E:

00000000 <_ZNSt17_Rb_tree_iteratorISt4pairIKjP6BBInfoEEC1EPSt13_Rb_tree_nodeIS4_E>:
   0:	b480      	push	{r7}
   2:	b083      	sub	sp, #12
   4:	af00      	add	r7, sp, #0
   6:	6078      	str	r0, [r7, #4]
   8:	6039      	str	r1, [r7, #0]
   a:	687b      	ldr	r3, [r7, #4]
   c:	683a      	ldr	r2, [r7, #0]
   e:	601a      	str	r2, [r3, #0]
  10:	687b      	ldr	r3, [r7, #4]
  12:	4618      	mov	r0, r3
  14:	370c      	adds	r7, #12
  16:	46bd      	mov	sp, r7
  18:	f85d 7b04 	ldr.w	r7, [sp], #4
  1c:	4770      	bx	lr
  1e:	bf00      	nop

Disassembly of section .text._ZNSt8_Rb_treeIjSt4pairIKjP6BBInfoESt10_Select1stIS4_ESt4lessIjESaIS4_EE8_M_beginEv:

00000000 <_ZNSt8_Rb_treeIjSt4pairIKjP6BBInfoESt10_Select1stIS4_ESt4lessIjESaIS4_EE8_M_beginEv>:
   0:	b480      	push	{r7}
   2:	b083      	sub	sp, #12
   4:	af00      	add	r7, sp, #0
   6:	6078      	str	r0, [r7, #4]
   8:	687b      	ldr	r3, [r7, #4]
   a:	689b      	ldr	r3, [r3, #8]
   c:	4618      	mov	r0, r3
   e:	370c      	adds	r7, #12
  10:	46bd      	mov	sp, r7
  12:	f85d 7b04 	ldr.w	r7, [sp], #4
  16:	4770      	bx	lr

Disassembly of section .text._ZNSt8_Rb_treeIjSt4pairIKjP6BBInfoESt10_Select1stIS4_ESt4lessIjESaIS4_EE6_M_endEv:

00000000 <_ZNSt8_Rb_treeIjSt4pairIKjP6BBInfoESt10_Select1stIS4_ESt4lessIjESaIS4_EE6_M_endEv>:
   0:	b480      	push	{r7}
   2:	b083      	sub	sp, #12
   4:	af00      	add	r7, sp, #0
   6:	6078      	str	r0, [r7, #4]
   8:	687b      	ldr	r3, [r7, #4]
   a:	3304      	adds	r3, #4
   c:	4618      	mov	r0, r3
   e:	370c      	adds	r7, #12
  10:	46bd      	mov	sp, r7
  12:	f85d 7b04 	ldr.w	r7, [sp], #4
  16:	4770      	bx	lr

Disassembly of section .text._ZNSt8_Rb_treeIjSt4pairIKjP6BBInfoESt10_Select1stIS4_ESt4lessIjESaIS4_EE14_M_lower_boundEPSt13_Rb_tree_nodeIS4_ESD_RS1_:

00000000 <_ZNSt8_Rb_treeIjSt4pairIKjP6BBInfoESt10_Select1stIS4_ESt4lessIjESaIS4_EE14_M_lower_boundEPSt13_Rb_tree_nodeIS4_ESD_RS1_>:
   0:	b590      	push	{r4, r7, lr}
   2:	b087      	sub	sp, #28
   4:	af00      	add	r7, sp, #0
   6:	60f8      	str	r0, [r7, #12]
   8:	60b9      	str	r1, [r7, #8]
   a:	607a      	str	r2, [r7, #4]
   c:	603b      	str	r3, [r7, #0]
   e:	e01a      	b.n	46 <_ZNSt8_Rb_treeIjSt4pairIKjP6BBInfoESt10_Select1stIS4_ESt4lessIjESaIS4_EE14_M_lower_boundEPSt13_Rb_tree_nodeIS4_ESD_RS1_+0x46>
  10:	68fc      	ldr	r4, [r7, #12]
  12:	68b8      	ldr	r0, [r7, #8]
  14:	f7ff fffe 	bl	0 <_ZNSt8_Rb_treeIjSt4pairIKjP6BBInfoESt10_Select1stIS4_ESt4lessIjESaIS4_EE14_M_lower_boundEPSt13_Rb_tree_nodeIS4_ESD_RS1_>
  18:	4603      	mov	r3, r0
  1a:	4620      	mov	r0, r4
  1c:	4619      	mov	r1, r3
  1e:	683a      	ldr	r2, [r7, #0]
  20:	f7ff fffe 	bl	0 <_ZNSt8_Rb_treeIjSt4pairIKjP6BBInfoESt10_Select1stIS4_ESt4lessIjESaIS4_EE14_M_lower_boundEPSt13_Rb_tree_nodeIS4_ESD_RS1_>
  24:	4603      	mov	r3, r0
  26:	f083 0301 	eor.w	r3, r3, #1
  2a:	b2db      	uxtb	r3, r3
  2c:	2b00      	cmp	r3, #0
  2e:	d006      	beq.n	3e <_ZNSt8_Rb_treeIjSt4pairIKjP6BBInfoESt10_Select1stIS4_ESt4lessIjESaIS4_EE14_M_lower_boundEPSt13_Rb_tree_nodeIS4_ESD_RS1_+0x3e>
  30:	68bb      	ldr	r3, [r7, #8]
  32:	607b      	str	r3, [r7, #4]
  34:	68b8      	ldr	r0, [r7, #8]
  36:	f7ff fffe 	bl	0 <_ZNSt8_Rb_treeIjSt4pairIKjP6BBInfoESt10_Select1stIS4_ESt4lessIjESaIS4_EE14_M_lower_boundEPSt13_Rb_tree_nodeIS4_ESD_RS1_>
  3a:	60b8      	str	r0, [r7, #8]
  3c:	e003      	b.n	46 <_ZNSt8_Rb_treeIjSt4pairIKjP6BBInfoESt10_Select1stIS4_ESt4lessIjESaIS4_EE14_M_lower_boundEPSt13_Rb_tree_nodeIS4_ESD_RS1_+0x46>
  3e:	68b8      	ldr	r0, [r7, #8]
  40:	f7ff fffe 	bl	0 <_ZNSt8_Rb_treeIjSt4pairIKjP6BBInfoESt10_Select1stIS4_ESt4lessIjESaIS4_EE14_M_lower_boundEPSt13_Rb_tree_nodeIS4_ESD_RS1_>
  44:	60b8      	str	r0, [r7, #8]
  46:	68bb      	ldr	r3, [r7, #8]
  48:	2b00      	cmp	r3, #0
  4a:	d1e1      	bne.n	10 <_ZNSt8_Rb_treeIjSt4pairIKjP6BBInfoESt10_Select1stIS4_ESt4lessIjESaIS4_EE14_M_lower_boundEPSt13_Rb_tree_nodeIS4_ESD_RS1_+0x10>
  4c:	f107 0314 	add.w	r3, r7, #20
  50:	4618      	mov	r0, r3
  52:	6879      	ldr	r1, [r7, #4]
  54:	f7ff fffe 	bl	0 <_ZNSt8_Rb_treeIjSt4pairIKjP6BBInfoESt10_Select1stIS4_ESt4lessIjESaIS4_EE14_M_lower_boundEPSt13_Rb_tree_nodeIS4_ESD_RS1_>
  58:	697b      	ldr	r3, [r7, #20]
  5a:	4618      	mov	r0, r3
  5c:	371c      	adds	r7, #28
  5e:	46bd      	mov	sp, r7
  60:	bd90      	pop	{r4, r7, pc}
  62:	bf00      	nop

Disassembly of section .text._ZNSt8_Rb_treeIjSt4pairIKjP6BBInfoESt10_Select1stIS4_ESt4lessIjESaIS4_EE6_S_keyEPKSt18_Rb_tree_node_base:

00000000 <_ZNSt8_Rb_treeIjSt4pairIKjP6BBInfoESt10_Select1stIS4_ESt4lessIjESaIS4_EE6_S_keyEPKSt18_Rb_tree_node_base>:
   0:	b580      	push	{r7, lr}
   2:	b084      	sub	sp, #16
   4:	af00      	add	r7, sp, #0
   6:	6078      	str	r0, [r7, #4]
   8:	6878      	ldr	r0, [r7, #4]
   a:	f7ff fffe 	bl	0 <_ZNSt8_Rb_treeIjSt4pairIKjP6BBInfoESt10_Select1stIS4_ESt4lessIjESaIS4_EE6_S_keyEPKSt18_Rb_tree_node_base>
   e:	4602      	mov	r2, r0
  10:	f107 030c 	add.w	r3, r7, #12
  14:	4618      	mov	r0, r3
  16:	4611      	mov	r1, r2
  18:	f7ff fffe 	bl	0 <_ZNSt8_Rb_treeIjSt4pairIKjP6BBInfoESt10_Select1stIS4_ESt4lessIjESaIS4_EE6_S_keyEPKSt18_Rb_tree_node_base>
  1c:	4603      	mov	r3, r0
  1e:	4618      	mov	r0, r3
  20:	3710      	adds	r7, #16
  22:	46bd      	mov	sp, r7
  24:	bd80      	pop	{r7, pc}
  26:	bf00      	nop

Disassembly of section .text._ZNKSt4lessIjEclERKjS2_:

00000000 <_ZNKSt4lessIjEclERKjS2_>:
   0:	b480      	push	{r7}
   2:	b085      	sub	sp, #20
   4:	af00      	add	r7, sp, #0
   6:	60f8      	str	r0, [r7, #12]
   8:	60b9      	str	r1, [r7, #8]
   a:	607a      	str	r2, [r7, #4]
   c:	68bb      	ldr	r3, [r7, #8]
   e:	681a      	ldr	r2, [r3, #0]
  10:	687b      	ldr	r3, [r7, #4]
  12:	681b      	ldr	r3, [r3, #0]
  14:	429a      	cmp	r2, r3
  16:	bf34      	ite	cc
  18:	2301      	movcc	r3, #1
  1a:	2300      	movcs	r3, #0
  1c:	b2db      	uxtb	r3, r3
  1e:	4618      	mov	r0, r3
  20:	3714      	adds	r7, #20
  22:	46bd      	mov	sp, r7
  24:	f85d 7b04 	ldr.w	r7, [sp], #4
  28:	4770      	bx	lr
  2a:	bf00      	nop

Disassembly of section .text._ZNSt8_Rb_treeIjSt4pairIKjP6BBInfoESt10_Select1stIS4_ESt4lessIjESaIS4_EE3endEv:

00000000 <_ZNSt8_Rb_treeIjSt4pairIKjP6BBInfoESt10_Select1stIS4_ESt4lessIjESaIS4_EE3endEv>:
   0:	b580      	push	{r7, lr}
   2:	b084      	sub	sp, #16
   4:	af00      	add	r7, sp, #0
   6:	6078      	str	r0, [r7, #4]
   8:	687b      	ldr	r3, [r7, #4]
   a:	3304      	adds	r3, #4
   c:	f107 020c 	add.w	r2, r7, #12
  10:	4610      	mov	r0, r2
  12:	4619      	mov	r1, r3
  14:	f7ff fffe 	bl	0 <_ZNSt8_Rb_treeIjSt4pairIKjP6BBInfoESt10_Select1stIS4_ESt4lessIjESaIS4_EE3endEv>
  18:	68fb      	ldr	r3, [r7, #12]
  1a:	4618      	mov	r0, r3
  1c:	3710      	adds	r7, #16
  1e:	46bd      	mov	sp, r7
  20:	bd80      	pop	{r7, pc}
  22:	bf00      	nop

Disassembly of section .text._ZNKSt17_Rb_tree_iteratorISt4pairIKjP6BBInfoEEeqERKS5_:

00000000 <_ZNKSt17_Rb_tree_iteratorISt4pairIKjP6BBInfoEEeqERKS5_>:
   0:	b480      	push	{r7}
   2:	b083      	sub	sp, #12
   4:	af00      	add	r7, sp, #0
   6:	6078      	str	r0, [r7, #4]
   8:	6039      	str	r1, [r7, #0]
   a:	687b      	ldr	r3, [r7, #4]
   c:	681a      	ldr	r2, [r3, #0]
   e:	683b      	ldr	r3, [r7, #0]
  10:	681b      	ldr	r3, [r3, #0]
  12:	429a      	cmp	r2, r3
  14:	bf0c      	ite	eq
  16:	2301      	moveq	r3, #1
  18:	2300      	movne	r3, #0
  1a:	b2db      	uxtb	r3, r3
  1c:	4618      	mov	r0, r3
  1e:	370c      	adds	r7, #12
  20:	46bd      	mov	sp, r7
  22:	f85d 7b04 	ldr.w	r7, [sp], #4
  26:	4770      	bx	lr

Disassembly of section .text._ZSt11__addressofISt4pairIKjP6BBInfoEEPT_RS5_:

00000000 <_ZSt11__addressofISt4pairIKjP6BBInfoEEPT_RS5_>:
   0:	b480      	push	{r7}
   2:	b083      	sub	sp, #12
   4:	af00      	add	r7, sp, #0
   6:	6078      	str	r0, [r7, #4]
   8:	687b      	ldr	r3, [r7, #4]
   a:	4618      	mov	r0, r3
   c:	370c      	adds	r7, #12
   e:	46bd      	mov	sp, r7
  10:	f85d 7b04 	ldr.w	r7, [sp], #4
  14:	4770      	bx	lr
  16:	bf00      	nop

Disassembly of section .text._ZNSt15_Deque_iteratorIjRjPjEmmEv:

00000000 <_ZNSt15_Deque_iteratorIjRjPjEmmEv>:
   0:	b580      	push	{r7, lr}
   2:	b082      	sub	sp, #8
   4:	af00      	add	r7, sp, #0
   6:	6078      	str	r0, [r7, #4]
   8:	687b      	ldr	r3, [r7, #4]
   a:	681a      	ldr	r2, [r3, #0]
   c:	687b      	ldr	r3, [r7, #4]
   e:	685b      	ldr	r3, [r3, #4]
  10:	429a      	cmp	r2, r3
  12:	d10a      	bne.n	2a <_ZNSt15_Deque_iteratorIjRjPjEmmEv+0x2a>
  14:	687b      	ldr	r3, [r7, #4]
  16:	68db      	ldr	r3, [r3, #12]
  18:	3b04      	subs	r3, #4
  1a:	6878      	ldr	r0, [r7, #4]
  1c:	4619      	mov	r1, r3
  1e:	f7ff fffe 	bl	0 <_ZNSt15_Deque_iteratorIjRjPjEmmEv>
  22:	687b      	ldr	r3, [r7, #4]
  24:	689a      	ldr	r2, [r3, #8]
  26:	687b      	ldr	r3, [r7, #4]
  28:	601a      	str	r2, [r3, #0]
  2a:	687b      	ldr	r3, [r7, #4]
  2c:	681b      	ldr	r3, [r3, #0]
  2e:	1f1a      	subs	r2, r3, #4
  30:	687b      	ldr	r3, [r7, #4]
  32:	601a      	str	r2, [r3, #0]
  34:	687b      	ldr	r3, [r7, #4]
  36:	4618      	mov	r0, r3
  38:	3708      	adds	r7, #8
  3a:	46bd      	mov	sp, r7
  3c:	bd80      	pop	{r7, pc}
  3e:	bf00      	nop

Disassembly of section .text._ZNKSt15_Deque_iteratorIjRjPjEdeEv:

00000000 <_ZNKSt15_Deque_iteratorIjRjPjEdeEv>:
   0:	b480      	push	{r7}
   2:	b083      	sub	sp, #12
   4:	af00      	add	r7, sp, #0
   6:	6078      	str	r0, [r7, #4]
   8:	687b      	ldr	r3, [r7, #4]
   a:	681b      	ldr	r3, [r3, #0]
   c:	4618      	mov	r0, r3
   e:	370c      	adds	r7, #12
  10:	46bd      	mov	sp, r7
  12:	f85d 7b04 	ldr.w	r7, [sp], #4
  16:	4770      	bx	lr

Disassembly of section .text._ZN9__gnu_cxx13new_allocatorIjE7destroyEPj:

00000000 <_ZN9__gnu_cxx13new_allocatorIjE7destroyEPj>:
   0:	b480      	push	{r7}
   2:	b083      	sub	sp, #12
   4:	af00      	add	r7, sp, #0
   6:	6078      	str	r0, [r7, #4]
   8:	6039      	str	r1, [r7, #0]
   a:	370c      	adds	r7, #12
   c:	46bd      	mov	sp, r7
   e:	f85d 7b04 	ldr.w	r7, [sp], #4
  12:	4770      	bx	lr

Disassembly of section .text._ZNSt5dequeIjSaIjEE15_M_pop_back_auxEv:

00000000 <_ZNSt5dequeIjSaIjEE15_M_pop_back_auxEv>:
   0:	b580      	push	{r7, lr}
   2:	b082      	sub	sp, #8
   4:	af00      	add	r7, sp, #0
   6:	6078      	str	r0, [r7, #4]
   8:	687a      	ldr	r2, [r7, #4]
   a:	687b      	ldr	r3, [r7, #4]
   c:	69db      	ldr	r3, [r3, #28]
   e:	4610      	mov	r0, r2
  10:	4619      	mov	r1, r3
  12:	f7ff fffe 	bl	0 <_ZNSt5dequeIjSaIjEE15_M_pop_back_auxEv>
  16:	687b      	ldr	r3, [r7, #4]
  18:	f103 0218 	add.w	r2, r3, #24
  1c:	687b      	ldr	r3, [r7, #4]
  1e:	6a5b      	ldr	r3, [r3, #36]	; 0x24
  20:	3b04      	subs	r3, #4
  22:	4610      	mov	r0, r2
  24:	4619      	mov	r1, r3
  26:	f7ff fffe 	bl	0 <_ZNSt5dequeIjSaIjEE15_M_pop_back_auxEv>
  2a:	687b      	ldr	r3, [r7, #4]
  2c:	6a1b      	ldr	r3, [r3, #32]
  2e:	1f1a      	subs	r2, r3, #4
  30:	687b      	ldr	r3, [r7, #4]
  32:	619a      	str	r2, [r3, #24]
  34:	687a      	ldr	r2, [r7, #4]
  36:	687b      	ldr	r3, [r7, #4]
  38:	699b      	ldr	r3, [r3, #24]
  3a:	4610      	mov	r0, r2
  3c:	4619      	mov	r1, r3
  3e:	f7ff fffe 	bl	0 <_ZNSt5dequeIjSaIjEE15_M_pop_back_auxEv>
  42:	3708      	adds	r7, #8
  44:	46bd      	mov	sp, r7
  46:	bd80      	pop	{r7, pc}

Disassembly of section .text._ZN9__gnu_cxx13new_allocatorIjE9constructEPjRKj:

00000000 <_ZN9__gnu_cxx13new_allocatorIjE9constructEPjRKj>:
   0:	b580      	push	{r7, lr}
   2:	b084      	sub	sp, #16
   4:	af00      	add	r7, sp, #0
   6:	60f8      	str	r0, [r7, #12]
   8:	60b9      	str	r1, [r7, #8]
   a:	607a      	str	r2, [r7, #4]
   c:	68bb      	ldr	r3, [r7, #8]
   e:	2004      	movs	r0, #4
  10:	4619      	mov	r1, r3
  12:	f7ff fffe 	bl	0 <_ZN9__gnu_cxx13new_allocatorIjE9constructEPjRKj>
  16:	4603      	mov	r3, r0
  18:	2b00      	cmp	r3, #0
  1a:	d002      	beq.n	22 <_ZN9__gnu_cxx13new_allocatorIjE9constructEPjRKj+0x22>
  1c:	687a      	ldr	r2, [r7, #4]
  1e:	6812      	ldr	r2, [r2, #0]
  20:	601a      	str	r2, [r3, #0]
  22:	3710      	adds	r7, #16
  24:	46bd      	mov	sp, r7
  26:	bd80      	pop	{r7, pc}

Disassembly of section .text._ZNSt5dequeIjSaIjEE16_M_push_back_auxERKj:

00000000 <_ZNSt5dequeIjSaIjEE16_M_push_back_auxERKj>:
   0:	b590      	push	{r4, r7, lr}
   2:	b083      	sub	sp, #12
   4:	af00      	add	r7, sp, #0
   6:	6078      	str	r0, [r7, #4]
   8:	6039      	str	r1, [r7, #0]
   a:	6878      	ldr	r0, [r7, #4]
   c:	2101      	movs	r1, #1
   e:	f7ff fffe 	bl	0 <_ZNSt5dequeIjSaIjEE16_M_push_back_auxERKj>
  12:	687b      	ldr	r3, [r7, #4]
  14:	6a5b      	ldr	r3, [r3, #36]	; 0x24
  16:	1d1c      	adds	r4, r3, #4
  18:	687b      	ldr	r3, [r7, #4]
  1a:	4618      	mov	r0, r3
  1c:	f7ff fffe 	bl	0 <_ZNSt5dequeIjSaIjEE16_M_push_back_auxERKj>
  20:	4603      	mov	r3, r0
  22:	6023      	str	r3, [r4, #0]
  24:	687a      	ldr	r2, [r7, #4]
  26:	687b      	ldr	r3, [r7, #4]
  28:	699b      	ldr	r3, [r3, #24]
  2a:	4610      	mov	r0, r2
  2c:	4619      	mov	r1, r3
  2e:	683a      	ldr	r2, [r7, #0]
  30:	f7ff fffe 	bl	0 <_ZNSt5dequeIjSaIjEE16_M_push_back_auxERKj>
  34:	687b      	ldr	r3, [r7, #4]
  36:	f103 0218 	add.w	r2, r3, #24
  3a:	687b      	ldr	r3, [r7, #4]
  3c:	6a5b      	ldr	r3, [r3, #36]	; 0x24
  3e:	3304      	adds	r3, #4
  40:	4610      	mov	r0, r2
  42:	4619      	mov	r1, r3
  44:	f7ff fffe 	bl	0 <_ZNSt5dequeIjSaIjEE16_M_push_back_auxERKj>
  48:	687b      	ldr	r3, [r7, #4]
  4a:	69da      	ldr	r2, [r3, #28]
  4c:	687b      	ldr	r3, [r7, #4]
  4e:	619a      	str	r2, [r3, #24]
  50:	e012      	b.n	78 <_ZNSt5dequeIjSaIjEE16_M_push_back_auxERKj+0x78>
  52:	f7ff fffe 	bl	0 <__cxa_end_catch>
  56:	f7ff fffe 	bl	0 <__cxa_end_cleanup>
  5a:	4603      	mov	r3, r0
  5c:	4618      	mov	r0, r3
  5e:	f7ff fffe 	bl	0 <__cxa_begin_catch>
  62:	687a      	ldr	r2, [r7, #4]
  64:	687b      	ldr	r3, [r7, #4]
  66:	6a5b      	ldr	r3, [r3, #36]	; 0x24
  68:	3304      	adds	r3, #4
  6a:	681b      	ldr	r3, [r3, #0]
  6c:	4610      	mov	r0, r2
  6e:	4619      	mov	r1, r3
  70:	f7ff fffe 	bl	0 <_ZNSt5dequeIjSaIjEE16_M_push_back_auxERKj>
  74:	f7ff fffe 	bl	0 <__cxa_rethrow>
  78:	370c      	adds	r7, #12
  7a:	46bd      	mov	sp, r7
  7c:	bd90      	pop	{r4, r7, pc}
  7e:	bf00      	nop

Disassembly of section .text._ZNSaIjEC2Ev:

00000000 <_ZNSaIjEC1Ev>:
   0:	b580      	push	{r7, lr}
   2:	b082      	sub	sp, #8
   4:	af00      	add	r7, sp, #0
   6:	6078      	str	r0, [r7, #4]
   8:	6878      	ldr	r0, [r7, #4]
   a:	f7ff fffe 	bl	0 <_ZNSaIjEC1Ev>
   e:	687b      	ldr	r3, [r7, #4]
  10:	4618      	mov	r0, r3
  12:	3708      	adds	r7, #8
  14:	46bd      	mov	sp, r7
  16:	bd80      	pop	{r7, pc}

Disassembly of section .text._ZNSt15_Deque_iteratorIjRjPjEC2Ev:

00000000 <_ZNSt15_Deque_iteratorIjRjPjEC1Ev>:
   0:	b480      	push	{r7}
   2:	b083      	sub	sp, #12
   4:	af00      	add	r7, sp, #0
   6:	6078      	str	r0, [r7, #4]
   8:	687b      	ldr	r3, [r7, #4]
   a:	2200      	movs	r2, #0
   c:	601a      	str	r2, [r3, #0]
   e:	687b      	ldr	r3, [r7, #4]
  10:	2200      	movs	r2, #0
  12:	605a      	str	r2, [r3, #4]
  14:	687b      	ldr	r3, [r7, #4]
  16:	2200      	movs	r2, #0
  18:	609a      	str	r2, [r3, #8]
  1a:	687b      	ldr	r3, [r7, #4]
  1c:	2200      	movs	r2, #0
  1e:	60da      	str	r2, [r3, #12]
  20:	687b      	ldr	r3, [r7, #4]
  22:	4618      	mov	r0, r3
  24:	370c      	adds	r7, #12
  26:	46bd      	mov	sp, r7
  28:	f85d 7b04 	ldr.w	r7, [sp], #4
  2c:	4770      	bx	lr
  2e:	bf00      	nop

Disassembly of section .text._ZN9__gnu_cxx13new_allocatorIjED2Ev:

00000000 <_ZN9__gnu_cxx13new_allocatorIjED1Ev>:
   0:	b480      	push	{r7}
   2:	b083      	sub	sp, #12
   4:	af00      	add	r7, sp, #0
   6:	6078      	str	r0, [r7, #4]
   8:	687b      	ldr	r3, [r7, #4]
   a:	4618      	mov	r0, r3
   c:	370c      	adds	r7, #12
   e:	46bd      	mov	sp, r7
  10:	f85d 7b04 	ldr.w	r7, [sp], #4
  14:	4770      	bx	lr
  16:	bf00      	nop

Disassembly of section .text._ZSt3maxIjERKT_S2_S2_:

00000000 <_ZSt3maxIjERKT_S2_S2_>:
   0:	b480      	push	{r7}
   2:	b083      	sub	sp, #12
   4:	af00      	add	r7, sp, #0
   6:	6078      	str	r0, [r7, #4]
   8:	6039      	str	r1, [r7, #0]
   a:	687b      	ldr	r3, [r7, #4]
   c:	681a      	ldr	r2, [r3, #0]
   e:	683b      	ldr	r3, [r7, #0]
  10:	681b      	ldr	r3, [r3, #0]
  12:	429a      	cmp	r2, r3
  14:	d201      	bcs.n	1a <_ZSt3maxIjERKT_S2_S2_+0x1a>
  16:	683b      	ldr	r3, [r7, #0]
  18:	e000      	b.n	1c <_ZSt3maxIjERKT_S2_S2_+0x1c>
  1a:	687b      	ldr	r3, [r7, #4]
  1c:	4618      	mov	r0, r3
  1e:	370c      	adds	r7, #12
  20:	46bd      	mov	sp, r7
  22:	f85d 7b04 	ldr.w	r7, [sp], #4
  26:	4770      	bx	lr

Disassembly of section .text._ZNSt11_Deque_baseIjSaIjEE15_M_allocate_mapEj:

00000000 <_ZNSt11_Deque_baseIjSaIjEE15_M_allocate_mapEj>:
   0:	b590      	push	{r4, r7, lr}
   2:	b085      	sub	sp, #20
   4:	af00      	add	r7, sp, #0
   6:	6078      	str	r0, [r7, #4]
   8:	6039      	str	r1, [r7, #0]
   a:	f107 030c 	add.w	r3, r7, #12
   e:	4618      	mov	r0, r3
  10:	6879      	ldr	r1, [r7, #4]
  12:	f7ff fffe 	bl	0 <_ZNSt11_Deque_baseIjSaIjEE15_M_allocate_mapEj>
  16:	f107 030c 	add.w	r3, r7, #12
  1a:	4618      	mov	r0, r3
  1c:	6839      	ldr	r1, [r7, #0]
  1e:	2200      	movs	r2, #0
  20:	f7ff fffe 	bl	0 <_ZNSt11_Deque_baseIjSaIjEE15_M_allocate_mapEj>
  24:	4604      	mov	r4, r0
  26:	f107 030c 	add.w	r3, r7, #12
  2a:	4618      	mov	r0, r3
  2c:	f7ff fffe 	bl	0 <_ZNSt11_Deque_baseIjSaIjEE15_M_allocate_mapEj>
  30:	4623      	mov	r3, r4
  32:	e006      	b.n	42 <_ZNSt11_Deque_baseIjSaIjEE15_M_allocate_mapEj+0x42>
  34:	f107 030c 	add.w	r3, r7, #12
  38:	4618      	mov	r0, r3
  3a:	f7ff fffe 	bl	0 <_ZNSt11_Deque_baseIjSaIjEE15_M_allocate_mapEj>
  3e:	f7ff fffe 	bl	0 <__cxa_end_cleanup>
  42:	4618      	mov	r0, r3
  44:	3714      	adds	r7, #20
  46:	46bd      	mov	sp, r7
  48:	bd90      	pop	{r4, r7, pc}
  4a:	bf00      	nop

Disassembly of section .text._ZNSt11_Deque_baseIjSaIjEE15_M_create_nodesEPPjS3_:

00000000 <_ZNSt11_Deque_baseIjSaIjEE15_M_create_nodesEPPjS3_>:
   0:	b580      	push	{r7, lr}
   2:	b086      	sub	sp, #24
   4:	af00      	add	r7, sp, #0
   6:	60f8      	str	r0, [r7, #12]
   8:	60b9      	str	r1, [r7, #8]
   a:	607a      	str	r2, [r7, #4]
   c:	68bb      	ldr	r3, [r7, #8]
   e:	617b      	str	r3, [r7, #20]
  10:	e008      	b.n	24 <_ZNSt11_Deque_baseIjSaIjEE15_M_create_nodesEPPjS3_+0x24>
  12:	68f8      	ldr	r0, [r7, #12]
  14:	f7ff fffe 	bl	0 <_ZNSt11_Deque_baseIjSaIjEE15_M_create_nodesEPPjS3_>
  18:	4602      	mov	r2, r0
  1a:	697b      	ldr	r3, [r7, #20]
  1c:	601a      	str	r2, [r3, #0]
  1e:	697b      	ldr	r3, [r7, #20]
  20:	3304      	adds	r3, #4
  22:	617b      	str	r3, [r7, #20]
  24:	697a      	ldr	r2, [r7, #20]
  26:	687b      	ldr	r3, [r7, #4]
  28:	429a      	cmp	r2, r3
  2a:	d3f2      	bcc.n	12 <_ZNSt11_Deque_baseIjSaIjEE15_M_create_nodesEPPjS3_+0x12>
  2c:	e00e      	b.n	4c <_ZNSt11_Deque_baseIjSaIjEE15_M_create_nodesEPPjS3_+0x4c>
  2e:	f7ff fffe 	bl	0 <__cxa_end_catch>
  32:	f7ff fffe 	bl	0 <__cxa_end_cleanup>
  36:	4603      	mov	r3, r0
  38:	4618      	mov	r0, r3
  3a:	f7ff fffe 	bl	0 <__cxa_begin_catch>
  3e:	68f8      	ldr	r0, [r7, #12]
  40:	68b9      	ldr	r1, [r7, #8]
  42:	697a      	ldr	r2, [r7, #20]
  44:	f7ff fffe 	bl	0 <_ZNSt11_Deque_baseIjSaIjEE15_M_create_nodesEPPjS3_>
  48:	f7ff fffe 	bl	0 <__cxa_rethrow>
  4c:	3718      	adds	r7, #24
  4e:	46bd      	mov	sp, r7
  50:	bd80      	pop	{r7, pc}
  52:	bf00      	nop

Disassembly of section .text._ZNSt15_Deque_iteratorIjRjPjE11_M_set_nodeEPS1_:

00000000 <_ZNSt15_Deque_iteratorIjRjPjE11_M_set_nodeEPS1_>:
   0:	b590      	push	{r4, r7, lr}
   2:	b083      	sub	sp, #12
   4:	af00      	add	r7, sp, #0
   6:	6078      	str	r0, [r7, #4]
   8:	6039      	str	r1, [r7, #0]
   a:	687b      	ldr	r3, [r7, #4]
   c:	683a      	ldr	r2, [r7, #0]
   e:	60da      	str	r2, [r3, #12]
  10:	683b      	ldr	r3, [r7, #0]
  12:	681a      	ldr	r2, [r3, #0]
  14:	687b      	ldr	r3, [r7, #4]
  16:	605a      	str	r2, [r3, #4]
  18:	687b      	ldr	r3, [r7, #4]
  1a:	685c      	ldr	r4, [r3, #4]
  1c:	f7ff fffe 	bl	0 <_ZNSt15_Deque_iteratorIjRjPjE11_M_set_nodeEPS1_>
  20:	4603      	mov	r3, r0
  22:	009b      	lsls	r3, r3, #2
  24:	18e2      	adds	r2, r4, r3
  26:	687b      	ldr	r3, [r7, #4]
  28:	609a      	str	r2, [r3, #8]
  2a:	370c      	adds	r7, #12
  2c:	46bd      	mov	sp, r7
  2e:	bd90      	pop	{r4, r7, pc}

Disassembly of section .text._ZNSt11_Deque_baseIjSaIjEE18_M_deallocate_nodeEPj:

00000000 <_ZNSt11_Deque_baseIjSaIjEE18_M_deallocate_nodeEPj>:
   0:	b590      	push	{r4, r7, lr}
   2:	b083      	sub	sp, #12
   4:	af00      	add	r7, sp, #0
   6:	6078      	str	r0, [r7, #4]
   8:	6039      	str	r1, [r7, #0]
   a:	687c      	ldr	r4, [r7, #4]
   c:	2004      	movs	r0, #4
   e:	f7ff fffe 	bl	0 <_ZNSt11_Deque_baseIjSaIjEE18_M_deallocate_nodeEPj>
  12:	4603      	mov	r3, r0
  14:	4620      	mov	r0, r4
  16:	6839      	ldr	r1, [r7, #0]
  18:	461a      	mov	r2, r3
  1a:	f7ff fffe 	bl	0 <_ZNSt11_Deque_baseIjSaIjEE18_M_deallocate_nodeEPj>
  1e:	370c      	adds	r7, #12
  20:	46bd      	mov	sp, r7
  22:	bd90      	pop	{r4, r7, pc}

Disassembly of section .text._ZNKSt11_Deque_baseIjSaIjEE20_M_get_map_allocatorEv:

00000000 <_ZNKSt11_Deque_baseIjSaIjEE20_M_get_map_allocatorEv>:
   0:	b580      	push	{r7, lr}
   2:	b082      	sub	sp, #8
   4:	af00      	add	r7, sp, #0
   6:	6078      	str	r0, [r7, #4]
   8:	6039      	str	r1, [r7, #0]
   a:	6838      	ldr	r0, [r7, #0]
   c:	f7ff fffe 	bl	0 <_ZNKSt11_Deque_baseIjSaIjEE20_M_get_map_allocatorEv>
  10:	4603      	mov	r3, r0
  12:	6878      	ldr	r0, [r7, #4]
  14:	4619      	mov	r1, r3
  16:	f7ff fffe 	bl	0 <_ZNKSt11_Deque_baseIjSaIjEE20_M_get_map_allocatorEv>
  1a:	6878      	ldr	r0, [r7, #4]
  1c:	3708      	adds	r7, #8
  1e:	46bd      	mov	sp, r7
  20:	bd80      	pop	{r7, pc}
  22:	bf00      	nop

Disassembly of section .text._ZNSaIPjED2Ev:

00000000 <_ZNSaIPjED1Ev>:
   0:	b580      	push	{r7, lr}
   2:	b082      	sub	sp, #8
   4:	af00      	add	r7, sp, #0
   6:	6078      	str	r0, [r7, #4]
   8:	6878      	ldr	r0, [r7, #4]
   a:	f7ff fffe 	bl	0 <_ZNSaIPjED1Ev>
   e:	687b      	ldr	r3, [r7, #4]
  10:	4618      	mov	r0, r3
  12:	3708      	adds	r7, #8
  14:	46bd      	mov	sp, r7
  16:	bd80      	pop	{r7, pc}

Disassembly of section .text._ZN9__gnu_cxx13new_allocatorIPjE10deallocateEPS1_j:

00000000 <_ZN9__gnu_cxx13new_allocatorIPjE10deallocateEPS1_j>:
   0:	b580      	push	{r7, lr}
   2:	b084      	sub	sp, #16
   4:	af00      	add	r7, sp, #0
   6:	60f8      	str	r0, [r7, #12]
   8:	60b9      	str	r1, [r7, #8]
   a:	607a      	str	r2, [r7, #4]
   c:	68b8      	ldr	r0, [r7, #8]
   e:	f7ff fffe 	bl	0 <_ZdlPv>
  12:	3710      	adds	r7, #16
  14:	46bd      	mov	sp, r7
  16:	bd80      	pop	{r7, pc}

Disassembly of section .text._ZStmiIjRjPjENSt15_Deque_iteratorIT_T0_T1_E15difference_typeERKS6_S9_:

00000000 <_ZStmiIjRjPjENSt15_Deque_iteratorIT_T0_T1_E15difference_typeERKS6_S9_>:
   0:	b580      	push	{r7, lr}
   2:	b082      	sub	sp, #8
   4:	af00      	add	r7, sp, #0
   6:	6078      	str	r0, [r7, #4]
   8:	6039      	str	r1, [r7, #0]
   a:	f7ff fffe 	bl	0 <_ZStmiIjRjPjENSt15_Deque_iteratorIT_T0_T1_E15difference_typeERKS6_S9_>
   e:	4603      	mov	r3, r0
  10:	461a      	mov	r2, r3
  12:	687b      	ldr	r3, [r7, #4]
  14:	68db      	ldr	r3, [r3, #12]
  16:	4619      	mov	r1, r3
  18:	683b      	ldr	r3, [r7, #0]
  1a:	68db      	ldr	r3, [r3, #12]
  1c:	1acb      	subs	r3, r1, r3
  1e:	109b      	asrs	r3, r3, #2
  20:	3b01      	subs	r3, #1
  22:	fb03 f302 	mul.w	r3, r3, r2
  26:	687a      	ldr	r2, [r7, #4]
  28:	6812      	ldr	r2, [r2, #0]
  2a:	4611      	mov	r1, r2
  2c:	687a      	ldr	r2, [r7, #4]
  2e:	6852      	ldr	r2, [r2, #4]
  30:	1a8a      	subs	r2, r1, r2
  32:	1092      	asrs	r2, r2, #2
  34:	4413      	add	r3, r2
  36:	683a      	ldr	r2, [r7, #0]
  38:	6892      	ldr	r2, [r2, #8]
  3a:	4611      	mov	r1, r2
  3c:	683a      	ldr	r2, [r7, #0]
  3e:	6812      	ldr	r2, [r2, #0]
  40:	1a8a      	subs	r2, r1, r2
  42:	1092      	asrs	r2, r2, #2
  44:	4413      	add	r3, r2
  46:	4618      	mov	r0, r3
  48:	3708      	adds	r7, #8
  4a:	46bd      	mov	sp, r7
  4c:	bd80      	pop	{r7, pc}
  4e:	bf00      	nop

Disassembly of section .text._ZNSt11_Deque_baseIjSaIjEE11_Deque_implC2ERKS0_:

00000000 <_ZNSt11_Deque_baseIjSaIjEE11_Deque_implC1ERKS0_>:
   0:	b580      	push	{r7, lr}
   2:	b082      	sub	sp, #8
   4:	af00      	add	r7, sp, #0
   6:	6078      	str	r0, [r7, #4]
   8:	6039      	str	r1, [r7, #0]
   a:	6878      	ldr	r0, [r7, #4]
   c:	6839      	ldr	r1, [r7, #0]
   e:	f7ff fffe 	bl	0 <_ZNSt11_Deque_baseIjSaIjEE11_Deque_implC1ERKS0_>
  12:	687b      	ldr	r3, [r7, #4]
  14:	2200      	movs	r2, #0
  16:	601a      	str	r2, [r3, #0]
  18:	687b      	ldr	r3, [r7, #4]
  1a:	2200      	movs	r2, #0
  1c:	605a      	str	r2, [r3, #4]
  1e:	687b      	ldr	r3, [r7, #4]
  20:	3308      	adds	r3, #8
  22:	4618      	mov	r0, r3
  24:	f7ff fffe 	bl	0 <_ZNSt11_Deque_baseIjSaIjEE11_Deque_implC1ERKS0_>
  28:	687b      	ldr	r3, [r7, #4]
  2a:	3318      	adds	r3, #24
  2c:	4618      	mov	r0, r3
  2e:	f7ff fffe 	bl	0 <_ZNSt11_Deque_baseIjSaIjEE11_Deque_implC1ERKS0_>
  32:	687b      	ldr	r3, [r7, #4]
  34:	4618      	mov	r0, r3
  36:	3708      	adds	r7, #8
  38:	46bd      	mov	sp, r7
  3a:	bd80      	pop	{r7, pc}

Disassembly of section .text._ZNSt15_Deque_iteratorIjRKjPS0_EC2ERKS_IjRjPjE:

00000000 <_ZNSt15_Deque_iteratorIjRKjPS0_EC1ERKS_IjRjPjE>:
   0:	b480      	push	{r7}
   2:	b083      	sub	sp, #12
   4:	af00      	add	r7, sp, #0
   6:	6078      	str	r0, [r7, #4]
   8:	6039      	str	r1, [r7, #0]
   a:	683b      	ldr	r3, [r7, #0]
   c:	681a      	ldr	r2, [r3, #0]
   e:	687b      	ldr	r3, [r7, #4]
  10:	601a      	str	r2, [r3, #0]
  12:	683b      	ldr	r3, [r7, #0]
  14:	685a      	ldr	r2, [r3, #4]
  16:	687b      	ldr	r3, [r7, #4]
  18:	605a      	str	r2, [r3, #4]
  1a:	683b      	ldr	r3, [r7, #0]
  1c:	689a      	ldr	r2, [r3, #8]
  1e:	687b      	ldr	r3, [r7, #4]
  20:	609a      	str	r2, [r3, #8]
  22:	683b      	ldr	r3, [r7, #0]
  24:	68da      	ldr	r2, [r3, #12]
  26:	687b      	ldr	r3, [r7, #4]
  28:	60da      	str	r2, [r3, #12]
  2a:	687b      	ldr	r3, [r7, #4]
  2c:	4618      	mov	r0, r3
  2e:	370c      	adds	r7, #12
  30:	46bd      	mov	sp, r7
  32:	f85d 7b04 	ldr.w	r7, [sp], #4
  36:	4770      	bx	lr

Disassembly of section .text._ZSt18uninitialized_copyISt15_Deque_iteratorIjRKjPS1_ES0_IjRjPjEET0_T_S9_S8_:

00000000 <_ZSt18uninitialized_copyISt15_Deque_iteratorIjRKjPS1_ES0_IjRjPjEET0_T_S9_S8_>:
   0:	b084      	sub	sp, #16
   2:	b5b0      	push	{r4, r5, r7, lr}
   4:	b08e      	sub	sp, #56	; 0x38
   6:	af06      	add	r7, sp, #24
   8:	6078      	str	r0, [r7, #4]
   a:	f107 0034 	add.w	r0, r7, #52	; 0x34
   e:	e880 000e 	stmia.w	r0, {r1, r2, r3}
  12:	2301      	movs	r3, #1
  14:	77fb      	strb	r3, [r7, #31]
  16:	f107 030c 	add.w	r3, r7, #12
  1a:	4618      	mov	r0, r3
  1c:	6d79      	ldr	r1, [r7, #84]	; 0x54
  1e:	f7ff fffe 	bl	0 <_ZSt18uninitialized_copyISt15_Deque_iteratorIjRKjPS1_ES0_IjRjPjEET0_T_S9_S8_>
  22:	687d      	ldr	r5, [r7, #4]
  24:	ac01      	add	r4, sp, #4
  26:	f107 0344 	add.w	r3, r7, #68	; 0x44
  2a:	cb0f      	ldmia	r3, {r0, r1, r2, r3}
  2c:	e884 000f 	stmia.w	r4, {r0, r1, r2, r3}
  30:	f107 030c 	add.w	r3, r7, #12
  34:	9305      	str	r3, [sp, #20]
  36:	6c3b      	ldr	r3, [r7, #64]	; 0x40
  38:	9300      	str	r3, [sp, #0]
  3a:	f107 0334 	add.w	r3, r7, #52	; 0x34
  3e:	cb0e      	ldmia	r3, {r1, r2, r3}
  40:	4628      	mov	r0, r5
  42:	f7ff fffe 	bl	0 <_ZSt18uninitialized_copyISt15_Deque_iteratorIjRKjPS1_ES0_IjRjPjEET0_T_S9_S8_>
  46:	6878      	ldr	r0, [r7, #4]
  48:	3720      	adds	r7, #32
  4a:	46bd      	mov	sp, r7
  4c:	e8bd 40b0 	ldmia.w	sp!, {r4, r5, r7, lr}
  50:	b004      	add	sp, #16
  52:	4770      	bx	lr

Disassembly of section .text._ZNSt8_Rb_treeIjSt4pairIKjP6BBInfoESt10_Select1stIS4_ESt4lessIjESaIS4_EE6_S_keyEPKSt13_Rb_tree_nodeIS4_E:

00000000 <_ZNSt8_Rb_treeIjSt4pairIKjP6BBInfoESt10_Select1stIS4_ESt4lessIjESaIS4_EE6_S_keyEPKSt13_Rb_tree_nodeIS4_E>:
   0:	b580      	push	{r7, lr}
   2:	b084      	sub	sp, #16
   4:	af00      	add	r7, sp, #0
   6:	6078      	str	r0, [r7, #4]
   8:	6878      	ldr	r0, [r7, #4]
   a:	f7ff fffe 	bl	0 <_ZNSt8_Rb_treeIjSt4pairIKjP6BBInfoESt10_Select1stIS4_ESt4lessIjESaIS4_EE6_S_keyEPKSt13_Rb_tree_nodeIS4_E>
   e:	4602      	mov	r2, r0
  10:	f107 030c 	add.w	r3, r7, #12
  14:	4618      	mov	r0, r3
  16:	4611      	mov	r1, r2
  18:	f7ff fffe 	bl	0 <_ZNSt8_Rb_treeIjSt4pairIKjP6BBInfoESt10_Select1stIS4_ESt4lessIjESaIS4_EE6_S_keyEPKSt13_Rb_tree_nodeIS4_E>
  1c:	4603      	mov	r3, r0
  1e:	4618      	mov	r0, r3
  20:	3710      	adds	r7, #16
  22:	46bd      	mov	sp, r7
  24:	bd80      	pop	{r7, pc}
  26:	bf00      	nop

Disassembly of section .text._ZNSt8_Rb_treeIjSt4pairIKjP6BBInfoESt10_Select1stIS4_ESt4lessIjESaIS4_EE7_S_leftEPSt18_Rb_tree_node_base:

00000000 <_ZNSt8_Rb_treeIjSt4pairIKjP6BBInfoESt10_Select1stIS4_ESt4lessIjESaIS4_EE7_S_leftEPSt18_Rb_tree_node_base>:
   0:	b480      	push	{r7}
   2:	b083      	sub	sp, #12
   4:	af00      	add	r7, sp, #0
   6:	6078      	str	r0, [r7, #4]
   8:	687b      	ldr	r3, [r7, #4]
   a:	689b      	ldr	r3, [r3, #8]
   c:	4618      	mov	r0, r3
   e:	370c      	adds	r7, #12
  10:	46bd      	mov	sp, r7
  12:	f85d 7b04 	ldr.w	r7, [sp], #4
  16:	4770      	bx	lr

Disassembly of section .text._ZNSt8_Rb_treeIjSt4pairIKjP6BBInfoESt10_Select1stIS4_ESt4lessIjESaIS4_EE8_S_rightEPSt18_Rb_tree_node_base:

00000000 <_ZNSt8_Rb_treeIjSt4pairIKjP6BBInfoESt10_Select1stIS4_ESt4lessIjESaIS4_EE8_S_rightEPSt18_Rb_tree_node_base>:
   0:	b480      	push	{r7}
   2:	b083      	sub	sp, #12
   4:	af00      	add	r7, sp, #0
   6:	6078      	str	r0, [r7, #4]
   8:	687b      	ldr	r3, [r7, #4]
   a:	68db      	ldr	r3, [r3, #12]
   c:	4618      	mov	r0, r3
   e:	370c      	adds	r7, #12
  10:	46bd      	mov	sp, r7
  12:	f85d 7b04 	ldr.w	r7, [sp], #4
  16:	4770      	bx	lr

Disassembly of section .text._ZNSt8_Rb_treeIjSt4pairIKjP6BBInfoESt10_Select1stIS4_ESt4lessIjESaIS4_EE5beginEv:

00000000 <_ZNSt8_Rb_treeIjSt4pairIKjP6BBInfoESt10_Select1stIS4_ESt4lessIjESaIS4_EE5beginEv>:
   0:	b580      	push	{r7, lr}
   2:	b084      	sub	sp, #16
   4:	af00      	add	r7, sp, #0
   6:	6078      	str	r0, [r7, #4]
   8:	687b      	ldr	r3, [r7, #4]
   a:	68db      	ldr	r3, [r3, #12]
   c:	f107 020c 	add.w	r2, r7, #12
  10:	4610      	mov	r0, r2
  12:	4619      	mov	r1, r3
  14:	f7ff fffe 	bl	0 <_ZNSt8_Rb_treeIjSt4pairIKjP6BBInfoESt10_Select1stIS4_ESt4lessIjESaIS4_EE5beginEv>
  18:	68fb      	ldr	r3, [r7, #12]
  1a:	4618      	mov	r0, r3
  1c:	3710      	adds	r7, #16
  1e:	46bd      	mov	sp, r7
  20:	bd80      	pop	{r7, pc}
  22:	bf00      	nop

Disassembly of section .text._ZNSt4pairIPSt18_Rb_tree_node_baseS1_EC2ERKS1_S4_:

00000000 <_ZNSt4pairIPSt18_Rb_tree_node_baseS1_EC1ERKS1_S4_>:
   0:	b480      	push	{r7}
   2:	b085      	sub	sp, #20
   4:	af00      	add	r7, sp, #0
   6:	60f8      	str	r0, [r7, #12]
   8:	60b9      	str	r1, [r7, #8]
   a:	607a      	str	r2, [r7, #4]
   c:	68bb      	ldr	r3, [r7, #8]
   e:	681a      	ldr	r2, [r3, #0]
  10:	68fb      	ldr	r3, [r7, #12]
  12:	601a      	str	r2, [r3, #0]
  14:	687b      	ldr	r3, [r7, #4]
  16:	681a      	ldr	r2, [r3, #0]
  18:	68fb      	ldr	r3, [r7, #12]
  1a:	605a      	str	r2, [r3, #4]
  1c:	68fb      	ldr	r3, [r7, #12]
  1e:	4618      	mov	r0, r3
  20:	3714      	adds	r7, #20
  22:	46bd      	mov	sp, r7
  24:	f85d 7b04 	ldr.w	r7, [sp], #4
  28:	4770      	bx	lr
  2a:	bf00      	nop

Disassembly of section .text._ZNSt17_Rb_tree_iteratorISt4pairIKjP6BBInfoEEmmEv:

00000000 <_ZNSt17_Rb_tree_iteratorISt4pairIKjP6BBInfoEEmmEv>:
   0:	b580      	push	{r7, lr}
   2:	b082      	sub	sp, #8
   4:	af00      	add	r7, sp, #0
   6:	6078      	str	r0, [r7, #4]
   8:	687b      	ldr	r3, [r7, #4]
   a:	681b      	ldr	r3, [r3, #0]
   c:	4618      	mov	r0, r3
   e:	f7ff fffe 	bl	0 <_ZSt18_Rb_tree_decrementPSt18_Rb_tree_node_base>
  12:	4602      	mov	r2, r0
  14:	687b      	ldr	r3, [r7, #4]
  16:	601a      	str	r2, [r3, #0]
  18:	687b      	ldr	r3, [r7, #4]
  1a:	4618      	mov	r0, r3
  1c:	3708      	adds	r7, #8
  1e:	46bd      	mov	sp, r7
  20:	bd80      	pop	{r7, pc}
  22:	bf00      	nop

Disassembly of section .text._ZNSt8_Rb_treeIjSt4pairIKjP6BBInfoESt10_Select1stIS4_ESt4lessIjESaIS4_EE14_M_create_nodeERKS4_:

00000000 <_ZNSt8_Rb_treeIjSt4pairIKjP6BBInfoESt10_Select1stIS4_ESt4lessIjESaIS4_EE14_M_create_nodeERKS4_>:
   0:	b580      	push	{r7, lr}
   2:	b084      	sub	sp, #16
   4:	af00      	add	r7, sp, #0
   6:	6078      	str	r0, [r7, #4]
   8:	6039      	str	r1, [r7, #0]
   a:	6878      	ldr	r0, [r7, #4]
   c:	f7ff fffe 	bl	0 <_ZNSt8_Rb_treeIjSt4pairIKjP6BBInfoESt10_Select1stIS4_ESt4lessIjESaIS4_EE14_M_create_nodeERKS4_>
  10:	4603      	mov	r3, r0
  12:	60fb      	str	r3, [r7, #12]
  14:	f107 0308 	add.w	r3, r7, #8
  18:	4618      	mov	r0, r3
  1a:	6879      	ldr	r1, [r7, #4]
  1c:	f7ff fffe 	bl	0 <_ZNSt8_Rb_treeIjSt4pairIKjP6BBInfoESt10_Select1stIS4_ESt4lessIjESaIS4_EE14_M_create_nodeERKS4_>
  20:	68f8      	ldr	r0, [r7, #12]
  22:	f7ff fffe 	bl	0 <_ZNSt8_Rb_treeIjSt4pairIKjP6BBInfoESt10_Select1stIS4_ESt4lessIjESaIS4_EE14_M_create_nodeERKS4_>
  26:	4602      	mov	r2, r0
  28:	f107 0308 	add.w	r3, r7, #8
  2c:	4618      	mov	r0, r3
  2e:	4611      	mov	r1, r2
  30:	683a      	ldr	r2, [r7, #0]
  32:	f7ff fffe 	bl	0 <_ZNSt8_Rb_treeIjSt4pairIKjP6BBInfoESt10_Select1stIS4_ESt4lessIjESaIS4_EE14_M_create_nodeERKS4_>
  36:	f107 0308 	add.w	r3, r7, #8
  3a:	4618      	mov	r0, r3
  3c:	f7ff fffe 	bl	0 <_ZNSt8_Rb_treeIjSt4pairIKjP6BBInfoESt10_Select1stIS4_ESt4lessIjESaIS4_EE14_M_create_nodeERKS4_>
  40:	68fb      	ldr	r3, [r7, #12]
  42:	e00d      	b.n	60 <_ZNSt8_Rb_treeIjSt4pairIKjP6BBInfoESt10_Select1stIS4_ESt4lessIjESaIS4_EE14_M_create_nodeERKS4_+0x60>
  44:	f7ff fffe 	bl	0 <__cxa_end_catch>
  48:	f7ff fffe 	bl	0 <__cxa_end_cleanup>
  4c:	4603      	mov	r3, r0
  4e:	4618      	mov	r0, r3
  50:	f7ff fffe 	bl	0 <__cxa_begin_catch>
  54:	6878      	ldr	r0, [r7, #4]
  56:	68f9      	ldr	r1, [r7, #12]
  58:	f7ff fffe 	bl	0 <_ZNSt8_Rb_treeIjSt4pairIKjP6BBInfoESt10_Select1stIS4_ESt4lessIjESaIS4_EE14_M_create_nodeERKS4_>
  5c:	f7ff fffe 	bl	0 <__cxa_rethrow>
  60:	4618      	mov	r0, r3
  62:	3710      	adds	r7, #16
  64:	46bd      	mov	sp, r7
  66:	bd80      	pop	{r7, pc}

Disassembly of section .text._ZNSt8_Rb_treeIjSt4pairIKjP6BBInfoESt10_Select1stIS4_ESt4lessIjESaIS4_EE8_S_valueEPKSt18_Rb_tree_node_base:

00000000 <_ZNSt8_Rb_treeIjSt4pairIKjP6BBInfoESt10_Select1stIS4_ESt4lessIjESaIS4_EE8_S_valueEPKSt18_Rb_tree_node_base>:
   0:	b580      	push	{r7, lr}
   2:	b082      	sub	sp, #8
   4:	af00      	add	r7, sp, #0
   6:	6078      	str	r0, [r7, #4]
   8:	6878      	ldr	r0, [r7, #4]
   a:	f7ff fffe 	bl	0 <_ZNSt8_Rb_treeIjSt4pairIKjP6BBInfoESt10_Select1stIS4_ESt4lessIjESaIS4_EE8_S_valueEPKSt18_Rb_tree_node_base>
   e:	4603      	mov	r3, r0
  10:	4618      	mov	r0, r3
  12:	3708      	adds	r7, #8
  14:	46bd      	mov	sp, r7
  16:	bd80      	pop	{r7, pc}

Disassembly of section .text._ZNSt5dequeIjSaIjEE22_M_reserve_map_at_backEj:

00000000 <_ZNSt5dequeIjSaIjEE22_M_reserve_map_at_backEj>:
   0:	b580      	push	{r7, lr}
   2:	b082      	sub	sp, #8
   4:	af00      	add	r7, sp, #0
   6:	6078      	str	r0, [r7, #4]
   8:	6039      	str	r1, [r7, #0]
   a:	683b      	ldr	r3, [r7, #0]
   c:	1c5a      	adds	r2, r3, #1
   e:	687b      	ldr	r3, [r7, #4]
  10:	685b      	ldr	r3, [r3, #4]
  12:	6879      	ldr	r1, [r7, #4]
  14:	6a49      	ldr	r1, [r1, #36]	; 0x24
  16:	4608      	mov	r0, r1
  18:	6879      	ldr	r1, [r7, #4]
  1a:	6809      	ldr	r1, [r1, #0]
  1c:	1a41      	subs	r1, r0, r1
  1e:	1089      	asrs	r1, r1, #2
  20:	1a5b      	subs	r3, r3, r1
  22:	429a      	cmp	r2, r3
  24:	d904      	bls.n	30 <_ZNSt5dequeIjSaIjEE22_M_reserve_map_at_backEj+0x30>
  26:	6878      	ldr	r0, [r7, #4]
  28:	6839      	ldr	r1, [r7, #0]
  2a:	2200      	movs	r2, #0
  2c:	f7ff fffe 	bl	0 <_ZNSt5dequeIjSaIjEE22_M_reserve_map_at_backEj>
  30:	3708      	adds	r7, #8
  32:	46bd      	mov	sp, r7
  34:	bd80      	pop	{r7, pc}
  36:	bf00      	nop

Disassembly of section .text._ZNSt11_Deque_baseIjSaIjEE16_M_allocate_nodeEv:

00000000 <_ZNSt11_Deque_baseIjSaIjEE16_M_allocate_nodeEv>:
   0:	b590      	push	{r4, r7, lr}
   2:	b083      	sub	sp, #12
   4:	af00      	add	r7, sp, #0
   6:	6078      	str	r0, [r7, #4]
   8:	687c      	ldr	r4, [r7, #4]
   a:	2004      	movs	r0, #4
   c:	f7ff fffe 	bl	0 <_ZNSt11_Deque_baseIjSaIjEE16_M_allocate_nodeEv>
  10:	4603      	mov	r3, r0
  12:	4620      	mov	r0, r4
  14:	4619      	mov	r1, r3
  16:	2200      	movs	r2, #0
  18:	f7ff fffe 	bl	0 <_ZNSt11_Deque_baseIjSaIjEE16_M_allocate_nodeEv>
  1c:	4603      	mov	r3, r0
  1e:	4618      	mov	r0, r3
  20:	370c      	adds	r7, #12
  22:	46bd      	mov	sp, r7
  24:	bd90      	pop	{r4, r7, pc}
  26:	bf00      	nop

Disassembly of section .text._ZN9__gnu_cxx13new_allocatorIjEC2Ev:

00000000 <_ZN9__gnu_cxx13new_allocatorIjEC1Ev>:
   0:	b480      	push	{r7}
   2:	b083      	sub	sp, #12
   4:	af00      	add	r7, sp, #0
   6:	6078      	str	r0, [r7, #4]
   8:	687b      	ldr	r3, [r7, #4]
   a:	4618      	mov	r0, r3
   c:	370c      	adds	r7, #12
   e:	46bd      	mov	sp, r7
  10:	f85d 7b04 	ldr.w	r7, [sp], #4
  14:	4770      	bx	lr
  16:	bf00      	nop

Disassembly of section .text._ZN9__gnu_cxx13new_allocatorIPjE8allocateEjPKv:

00000000 <_ZN9__gnu_cxx13new_allocatorIPjE8allocateEjPKv>:
   0:	b580      	push	{r7, lr}
   2:	b084      	sub	sp, #16
   4:	af00      	add	r7, sp, #0
   6:	60f8      	str	r0, [r7, #12]
   8:	60b9      	str	r1, [r7, #8]
   a:	607a      	str	r2, [r7, #4]
   c:	68f8      	ldr	r0, [r7, #12]
   e:	f7ff fffe 	bl	0 <_ZN9__gnu_cxx13new_allocatorIPjE8allocateEjPKv>
  12:	4602      	mov	r2, r0
  14:	68bb      	ldr	r3, [r7, #8]
  16:	429a      	cmp	r2, r3
  18:	bf34      	ite	cc
  1a:	2301      	movcc	r3, #1
  1c:	2300      	movcs	r3, #0
  1e:	b2db      	uxtb	r3, r3
  20:	2b00      	cmp	r3, #0
  22:	d001      	beq.n	28 <_ZN9__gnu_cxx13new_allocatorIPjE8allocateEjPKv+0x28>
  24:	f7ff fffe 	bl	0 <_ZSt17__throw_bad_allocv>
  28:	68bb      	ldr	r3, [r7, #8]
  2a:	009b      	lsls	r3, r3, #2
  2c:	4618      	mov	r0, r3
  2e:	f7ff fffe 	bl	0 <_Znwj>
  32:	4603      	mov	r3, r0
  34:	4618      	mov	r0, r3
  36:	3710      	adds	r7, #16
  38:	46bd      	mov	sp, r7
  3a:	bd80      	pop	{r7, pc}

Disassembly of section .text._ZNSt15_Deque_iteratorIjRjPjE14_S_buffer_sizeEv:

00000000 <_ZNSt15_Deque_iteratorIjRjPjE14_S_buffer_sizeEv>:
   0:	b580      	push	{r7, lr}
   2:	af00      	add	r7, sp, #0
   4:	2004      	movs	r0, #4
   6:	f7ff fffe 	bl	0 <_ZNSt15_Deque_iteratorIjRjPjE14_S_buffer_sizeEv>
   a:	4603      	mov	r3, r0
   c:	4618      	mov	r0, r3
   e:	bd80      	pop	{r7, pc}

Disassembly of section .text._ZN9__gnu_cxx13new_allocatorIjE10deallocateEPjj:

00000000 <_ZN9__gnu_cxx13new_allocatorIjE10deallocateEPjj>:
   0:	b580      	push	{r7, lr}
   2:	b084      	sub	sp, #16
   4:	af00      	add	r7, sp, #0
   6:	60f8      	str	r0, [r7, #12]
   8:	60b9      	str	r1, [r7, #8]
   a:	607a      	str	r2, [r7, #4]
   c:	68b8      	ldr	r0, [r7, #8]
   e:	f7ff fffe 	bl	0 <_ZdlPv>
  12:	3710      	adds	r7, #16
  14:	46bd      	mov	sp, r7
  16:	bd80      	pop	{r7, pc}

Disassembly of section .text._ZNSaIPjEC2IjEERKSaIT_E:

00000000 <_ZNSaIPjEC1IjEERKSaIT_E>:
   0:	b580      	push	{r7, lr}
   2:	b082      	sub	sp, #8
   4:	af00      	add	r7, sp, #0
   6:	6078      	str	r0, [r7, #4]
   8:	6039      	str	r1, [r7, #0]
   a:	6878      	ldr	r0, [r7, #4]
   c:	f7ff fffe 	bl	0 <_ZNSaIPjEC1IjEERKSaIT_E>
  10:	687b      	ldr	r3, [r7, #4]
  12:	4618      	mov	r0, r3
  14:	3708      	adds	r7, #8
  16:	46bd      	mov	sp, r7
  18:	bd80      	pop	{r7, pc}
  1a:	bf00      	nop

Disassembly of section .text._ZN9__gnu_cxx13new_allocatorIPjED2Ev:

00000000 <_ZN9__gnu_cxx13new_allocatorIPjED1Ev>:
   0:	b480      	push	{r7}
   2:	b083      	sub	sp, #12
   4:	af00      	add	r7, sp, #0
   6:	6078      	str	r0, [r7, #4]
   8:	687b      	ldr	r3, [r7, #4]
   a:	4618      	mov	r0, r3
   c:	370c      	adds	r7, #12
   e:	46bd      	mov	sp, r7
  10:	f85d 7b04 	ldr.w	r7, [sp], #4
  14:	4770      	bx	lr
  16:	bf00      	nop

Disassembly of section .text._ZNSaIjEC2ERKS_:

00000000 <_ZNSaIjEC1ERKS_>:
   0:	b580      	push	{r7, lr}
   2:	b082      	sub	sp, #8
   4:	af00      	add	r7, sp, #0
   6:	6078      	str	r0, [r7, #4]
   8:	6039      	str	r1, [r7, #0]
   a:	6878      	ldr	r0, [r7, #4]
   c:	6839      	ldr	r1, [r7, #0]
   e:	f7ff fffe 	bl	0 <_ZNSaIjEC1ERKS_>
  12:	687b      	ldr	r3, [r7, #4]
  14:	4618      	mov	r0, r3
  16:	3708      	adds	r7, #8
  18:	46bd      	mov	sp, r7
  1a:	bd80      	pop	{r7, pc}

Disassembly of section .text._ZNSt20__uninitialized_copyILb1EE13__uninit_copyISt15_Deque_iteratorIjRKjPS3_ES2_IjRjPjEEET0_T_SB_SA_:

00000000 <_ZNSt20__uninitialized_copyILb1EE13__uninit_copyISt15_Deque_iteratorIjRKjPS3_ES2_IjRjPjEEET0_T_SB_SA_>:
   0:	b084      	sub	sp, #16
   2:	b5b0      	push	{r4, r5, r7, lr}
   4:	b08c      	sub	sp, #48	; 0x30
   6:	af06      	add	r7, sp, #24
   8:	6078      	str	r0, [r7, #4]
   a:	f107 002c 	add.w	r0, r7, #44	; 0x2c
   e:	e880 000e 	stmia.w	r0, {r1, r2, r3}
  12:	f107 0308 	add.w	r3, r7, #8
  16:	4618      	mov	r0, r3
  18:	6cf9      	ldr	r1, [r7, #76]	; 0x4c
  1a:	f7ff fffe 	bl	0 <_ZNSt20__uninitialized_copyILb1EE13__uninit_copyISt15_Deque_iteratorIjRKjPS3_ES2_IjRjPjEEET0_T_SB_SA_>
  1e:	687d      	ldr	r5, [r7, #4]
  20:	ac01      	add	r4, sp, #4
  22:	f107 033c 	add.w	r3, r7, #60	; 0x3c
  26:	cb0f      	ldmia	r3, {r0, r1, r2, r3}
  28:	e884 000f 	stmia.w	r4, {r0, r1, r2, r3}
  2c:	f107 0308 	add.w	r3, r7, #8
  30:	9305      	str	r3, [sp, #20]
  32:	6bbb      	ldr	r3, [r7, #56]	; 0x38
  34:	9300      	str	r3, [sp, #0]
  36:	f107 032c 	add.w	r3, r7, #44	; 0x2c
  3a:	cb0e      	ldmia	r3, {r1, r2, r3}
  3c:	4628      	mov	r0, r5
  3e:	f7ff fffe 	bl	0 <_ZNSt20__uninitialized_copyILb1EE13__uninit_copyISt15_Deque_iteratorIjRKjPS3_ES2_IjRjPjEEET0_T_SB_SA_>
  42:	6878      	ldr	r0, [r7, #4]
  44:	3718      	adds	r7, #24
  46:	46bd      	mov	sp, r7
  48:	e8bd 40b0 	ldmia.w	sp!, {r4, r5, r7, lr}
  4c:	b004      	add	sp, #16
  4e:	4770      	bx	lr

Disassembly of section .text._ZNSt8_Rb_treeIjSt4pairIKjP6BBInfoESt10_Select1stIS4_ESt4lessIjESaIS4_EE8_S_valueEPKSt13_Rb_tree_nodeIS4_E:

00000000 <_ZNSt8_Rb_treeIjSt4pairIKjP6BBInfoESt10_Select1stIS4_ESt4lessIjESaIS4_EE8_S_valueEPKSt13_Rb_tree_nodeIS4_E>:
   0:	b580      	push	{r7, lr}
   2:	b082      	sub	sp, #8
   4:	af00      	add	r7, sp, #0
   6:	6078      	str	r0, [r7, #4]
   8:	6878      	ldr	r0, [r7, #4]
   a:	f7ff fffe 	bl	0 <_ZNSt8_Rb_treeIjSt4pairIKjP6BBInfoESt10_Select1stIS4_ESt4lessIjESaIS4_EE8_S_valueEPKSt13_Rb_tree_nodeIS4_E>
   e:	4603      	mov	r3, r0
  10:	4618      	mov	r0, r3
  12:	3708      	adds	r7, #8
  14:	46bd      	mov	sp, r7
  16:	bd80      	pop	{r7, pc}

Disassembly of section .text._ZNSt8_Rb_treeIjSt4pairIKjP6BBInfoESt10_Select1stIS4_ESt4lessIjESaIS4_EE11_M_get_nodeEv:

00000000 <_ZNSt8_Rb_treeIjSt4pairIKjP6BBInfoESt10_Select1stIS4_ESt4lessIjESaIS4_EE11_M_get_nodeEv>:
   0:	b580      	push	{r7, lr}
   2:	b082      	sub	sp, #8
   4:	af00      	add	r7, sp, #0
   6:	6078      	str	r0, [r7, #4]
   8:	6878      	ldr	r0, [r7, #4]
   a:	f7ff fffe 	bl	0 <_ZNSt8_Rb_treeIjSt4pairIKjP6BBInfoESt10_Select1stIS4_ESt4lessIjESaIS4_EE11_M_get_nodeEv>
   e:	4603      	mov	r3, r0
  10:	4618      	mov	r0, r3
  12:	2101      	movs	r1, #1
  14:	f7ff fffe 	bl	0 <_ZNSt8_Rb_treeIjSt4pairIKjP6BBInfoESt10_Select1stIS4_ESt4lessIjESaIS4_EE11_M_get_nodeEv>
  18:	4603      	mov	r3, r0
  1a:	4618      	mov	r0, r3
  1c:	3708      	adds	r7, #8
  1e:	46bd      	mov	sp, r7
  20:	bd80      	pop	{r7, pc}
  22:	bf00      	nop

Disassembly of section .text._ZNKSt8_Rb_treeIjSt4pairIKjP6BBInfoESt10_Select1stIS4_ESt4lessIjESaIS4_EE13get_allocatorEv:

00000000 <_ZNKSt8_Rb_treeIjSt4pairIKjP6BBInfoESt10_Select1stIS4_ESt4lessIjESaIS4_EE13get_allocatorEv>:
   0:	b580      	push	{r7, lr}
   2:	b082      	sub	sp, #8
   4:	af00      	add	r7, sp, #0
   6:	6078      	str	r0, [r7, #4]
   8:	6039      	str	r1, [r7, #0]
   a:	6838      	ldr	r0, [r7, #0]
   c:	f7ff fffe 	bl	0 <_ZNKSt8_Rb_treeIjSt4pairIKjP6BBInfoESt10_Select1stIS4_ESt4lessIjESaIS4_EE13get_allocatorEv>
  10:	4603      	mov	r3, r0
  12:	6878      	ldr	r0, [r7, #4]
  14:	4619      	mov	r1, r3
  16:	f7ff fffe 	bl	0 <_ZNKSt8_Rb_treeIjSt4pairIKjP6BBInfoESt10_Select1stIS4_ESt4lessIjESaIS4_EE13get_allocatorEv>
  1a:	6878      	ldr	r0, [r7, #4]
  1c:	3708      	adds	r7, #8
  1e:	46bd      	mov	sp, r7
  20:	bd80      	pop	{r7, pc}
  22:	bf00      	nop

Disassembly of section .text._ZNSaISt4pairIKjP6BBInfoEED2Ev:

00000000 <_ZNSaISt4pairIKjP6BBInfoEED1Ev>:
   0:	b580      	push	{r7, lr}
   2:	b082      	sub	sp, #8
   4:	af00      	add	r7, sp, #0
   6:	6078      	str	r0, [r7, #4]
   8:	6878      	ldr	r0, [r7, #4]
   a:	f7ff fffe 	bl	0 <_ZNSaISt4pairIKjP6BBInfoEED1Ev>
   e:	687b      	ldr	r3, [r7, #4]
  10:	4618      	mov	r0, r3
  12:	3708      	adds	r7, #8
  14:	46bd      	mov	sp, r7
  16:	bd80      	pop	{r7, pc}

Disassembly of section .text._ZN9__gnu_cxx13new_allocatorISt4pairIKjP6BBInfoEE9constructEPS5_RKS5_:

00000000 <_ZN9__gnu_cxx13new_allocatorISt4pairIKjP6BBInfoEE9constructEPS5_RKS5_>:
   0:	b580      	push	{r7, lr}
   2:	b084      	sub	sp, #16
   4:	af00      	add	r7, sp, #0
   6:	60f8      	str	r0, [r7, #12]
   8:	60b9      	str	r1, [r7, #8]
   a:	607a      	str	r2, [r7, #4]
   c:	68bb      	ldr	r3, [r7, #8]
   e:	2008      	movs	r0, #8
  10:	4619      	mov	r1, r3
  12:	f7ff fffe 	bl	0 <_ZN9__gnu_cxx13new_allocatorISt4pairIKjP6BBInfoEE9constructEPS5_RKS5_>
  16:	4603      	mov	r3, r0
  18:	2b00      	cmp	r3, #0
  1a:	d004      	beq.n	26 <_ZN9__gnu_cxx13new_allocatorISt4pairIKjP6BBInfoEE9constructEPS5_RKS5_+0x26>
  1c:	687a      	ldr	r2, [r7, #4]
  1e:	e892 0003 	ldmia.w	r2, {r0, r1}
  22:	e883 0003 	stmia.w	r3, {r0, r1}
  26:	3710      	adds	r7, #16
  28:	46bd      	mov	sp, r7
  2a:	bd80      	pop	{r7, pc}

Disassembly of section .text._ZNSt8_Rb_treeIjSt4pairIKjP6BBInfoESt10_Select1stIS4_ESt4lessIjESaIS4_EE11_M_put_nodeEPSt13_Rb_tree_nodeIS4_E:

00000000 <_ZNSt8_Rb_treeIjSt4pairIKjP6BBInfoESt10_Select1stIS4_ESt4lessIjESaIS4_EE11_M_put_nodeEPSt13_Rb_tree_nodeIS4_E>:
   0:	b580      	push	{r7, lr}
   2:	b082      	sub	sp, #8
   4:	af00      	add	r7, sp, #0
   6:	6078      	str	r0, [r7, #4]
   8:	6039      	str	r1, [r7, #0]
   a:	6878      	ldr	r0, [r7, #4]
   c:	f7ff fffe 	bl	0 <_ZNSt8_Rb_treeIjSt4pairIKjP6BBInfoESt10_Select1stIS4_ESt4lessIjESaIS4_EE11_M_put_nodeEPSt13_Rb_tree_nodeIS4_E>
  10:	4603      	mov	r3, r0
  12:	4618      	mov	r0, r3
  14:	6839      	ldr	r1, [r7, #0]
  16:	2201      	movs	r2, #1
  18:	f7ff fffe 	bl	0 <_ZNSt8_Rb_treeIjSt4pairIKjP6BBInfoESt10_Select1stIS4_ESt4lessIjESaIS4_EE11_M_put_nodeEPSt13_Rb_tree_nodeIS4_E>
  1c:	3708      	adds	r7, #8
  1e:	46bd      	mov	sp, r7
  20:	bd80      	pop	{r7, pc}
  22:	bf00      	nop

Disassembly of section .text._ZNKSt13_Rb_tree_nodeISt4pairIKjP6BBInfoEE9_M_valptrEv:

00000000 <_ZNKSt13_Rb_tree_nodeISt4pairIKjP6BBInfoEE9_M_valptrEv>:
   0:	b580      	push	{r7, lr}
   2:	b082      	sub	sp, #8
   4:	af00      	add	r7, sp, #0
   6:	6078      	str	r0, [r7, #4]
   8:	687b      	ldr	r3, [r7, #4]
   a:	3310      	adds	r3, #16
   c:	4618      	mov	r0, r3
   e:	f7ff fffe 	bl	0 <_ZNKSt13_Rb_tree_nodeISt4pairIKjP6BBInfoEE9_M_valptrEv>
  12:	4603      	mov	r3, r0
  14:	4618      	mov	r0, r3
  16:	3708      	adds	r7, #8
  18:	46bd      	mov	sp, r7
  1a:	bd80      	pop	{r7, pc}

Disassembly of section .text._ZNSt5dequeIjSaIjEE17_M_reallocate_mapEjb:

00000000 <_ZNSt5dequeIjSaIjEE17_M_reallocate_mapEjb>:
   0:	b590      	push	{r4, r7, lr}
   2:	b08b      	sub	sp, #44	; 0x2c
   4:	af00      	add	r7, sp, #0
   6:	60f8      	str	r0, [r7, #12]
   8:	60b9      	str	r1, [r7, #8]
   a:	4613      	mov	r3, r2
   c:	71fb      	strb	r3, [r7, #7]
   e:	68fb      	ldr	r3, [r7, #12]
  10:	6a5b      	ldr	r3, [r3, #36]	; 0x24
  12:	461a      	mov	r2, r3
  14:	68fb      	ldr	r3, [r7, #12]
  16:	695b      	ldr	r3, [r3, #20]
  18:	1ad3      	subs	r3, r2, r3
  1a:	109b      	asrs	r3, r3, #2
  1c:	3301      	adds	r3, #1
  1e:	623b      	str	r3, [r7, #32]
  20:	68bb      	ldr	r3, [r7, #8]
  22:	6a3a      	ldr	r2, [r7, #32]
  24:	4413      	add	r3, r2
  26:	61fb      	str	r3, [r7, #28]
  28:	68fb      	ldr	r3, [r7, #12]
  2a:	685a      	ldr	r2, [r3, #4]
  2c:	69fb      	ldr	r3, [r7, #28]
  2e:	005b      	lsls	r3, r3, #1
  30:	429a      	cmp	r2, r3
  32:	d92e      	bls.n	92 <_ZNSt5dequeIjSaIjEE17_M_reallocate_mapEjb+0x92>
  34:	68fb      	ldr	r3, [r7, #12]
  36:	681a      	ldr	r2, [r3, #0]
  38:	68fb      	ldr	r3, [r7, #12]
  3a:	6859      	ldr	r1, [r3, #4]
  3c:	69fb      	ldr	r3, [r7, #28]
  3e:	1acb      	subs	r3, r1, r3
  40:	085b      	lsrs	r3, r3, #1
  42:	0099      	lsls	r1, r3, #2
  44:	79fb      	ldrb	r3, [r7, #7]
  46:	2b00      	cmp	r3, #0
  48:	d002      	beq.n	50 <_ZNSt5dequeIjSaIjEE17_M_reallocate_mapEjb+0x50>
  4a:	68bb      	ldr	r3, [r7, #8]
  4c:	009b      	lsls	r3, r3, #2
  4e:	e000      	b.n	52 <_ZNSt5dequeIjSaIjEE17_M_reallocate_mapEjb+0x52>
  50:	2300      	movs	r3, #0
  52:	440b      	add	r3, r1
  54:	4413      	add	r3, r2
  56:	627b      	str	r3, [r7, #36]	; 0x24
  58:	68fb      	ldr	r3, [r7, #12]
  5a:	695a      	ldr	r2, [r3, #20]
  5c:	6a7b      	ldr	r3, [r7, #36]	; 0x24
  5e:	429a      	cmp	r2, r3
  60:	d90a      	bls.n	78 <_ZNSt5dequeIjSaIjEE17_M_reallocate_mapEjb+0x78>
  62:	68fb      	ldr	r3, [r7, #12]
  64:	695a      	ldr	r2, [r3, #20]
  66:	68fb      	ldr	r3, [r7, #12]
  68:	6a5b      	ldr	r3, [r3, #36]	; 0x24
  6a:	3304      	adds	r3, #4
  6c:	4610      	mov	r0, r2
  6e:	4619      	mov	r1, r3
  70:	6a7a      	ldr	r2, [r7, #36]	; 0x24
  72:	f7ff fffe 	bl	0 <_ZNSt5dequeIjSaIjEE17_M_reallocate_mapEjb>
  76:	e04c      	b.n	112 <_ZNSt5dequeIjSaIjEE17_M_reallocate_mapEjb+0x112>
  78:	68fb      	ldr	r3, [r7, #12]
  7a:	6958      	ldr	r0, [r3, #20]
  7c:	68fb      	ldr	r3, [r7, #12]
  7e:	6a5b      	ldr	r3, [r3, #36]	; 0x24
  80:	1d19      	adds	r1, r3, #4
  82:	6a3b      	ldr	r3, [r7, #32]
  84:	009b      	lsls	r3, r3, #2
  86:	6a7a      	ldr	r2, [r7, #36]	; 0x24
  88:	4413      	add	r3, r2
  8a:	461a      	mov	r2, r3
  8c:	f7ff fffe 	bl	0 <_ZNSt5dequeIjSaIjEE17_M_reallocate_mapEjb>
  90:	e03f      	b.n	112 <_ZNSt5dequeIjSaIjEE17_M_reallocate_mapEjb+0x112>
  92:	68fb      	ldr	r3, [r7, #12]
  94:	685c      	ldr	r4, [r3, #4]
  96:	68fb      	ldr	r3, [r7, #12]
  98:	1d1a      	adds	r2, r3, #4
  9a:	f107 0308 	add.w	r3, r7, #8
  9e:	4610      	mov	r0, r2
  a0:	4619      	mov	r1, r3
  a2:	f7ff fffe 	bl	0 <_ZNSt5dequeIjSaIjEE17_M_reallocate_mapEjb>
  a6:	4603      	mov	r3, r0
  a8:	681b      	ldr	r3, [r3, #0]
  aa:	4423      	add	r3, r4
  ac:	3302      	adds	r3, #2
  ae:	61bb      	str	r3, [r7, #24]
  b0:	68fb      	ldr	r3, [r7, #12]
  b2:	4618      	mov	r0, r3
  b4:	69b9      	ldr	r1, [r7, #24]
  b6:	f7ff fffe 	bl	0 <_ZNSt5dequeIjSaIjEE17_M_reallocate_mapEjb>
  ba:	4603      	mov	r3, r0
  bc:	617b      	str	r3, [r7, #20]
  be:	69ba      	ldr	r2, [r7, #24]
  c0:	69fb      	ldr	r3, [r7, #28]
  c2:	1ad3      	subs	r3, r2, r3
  c4:	085b      	lsrs	r3, r3, #1
  c6:	009a      	lsls	r2, r3, #2
  c8:	79fb      	ldrb	r3, [r7, #7]
  ca:	2b00      	cmp	r3, #0
  cc:	d002      	beq.n	d4 <_ZNSt5dequeIjSaIjEE17_M_reallocate_mapEjb+0xd4>
  ce:	68bb      	ldr	r3, [r7, #8]
  d0:	009b      	lsls	r3, r3, #2
  d2:	e000      	b.n	d6 <_ZNSt5dequeIjSaIjEE17_M_reallocate_mapEjb+0xd6>
  d4:	2300      	movs	r3, #0
  d6:	4413      	add	r3, r2
  d8:	697a      	ldr	r2, [r7, #20]
  da:	4413      	add	r3, r2
  dc:	627b      	str	r3, [r7, #36]	; 0x24
  de:	68fb      	ldr	r3, [r7, #12]
  e0:	695a      	ldr	r2, [r3, #20]
  e2:	68fb      	ldr	r3, [r7, #12]
  e4:	6a5b      	ldr	r3, [r3, #36]	; 0x24
  e6:	3304      	adds	r3, #4
  e8:	4610      	mov	r0, r2
  ea:	4619      	mov	r1, r3
  ec:	6a7a      	ldr	r2, [r7, #36]	; 0x24
  ee:	f7ff fffe 	bl	0 <_ZNSt5dequeIjSaIjEE17_M_reallocate_mapEjb>
  f2:	68f9      	ldr	r1, [r7, #12]
  f4:	68fb      	ldr	r3, [r7, #12]
  f6:	681a      	ldr	r2, [r3, #0]
  f8:	68fb      	ldr	r3, [r7, #12]
  fa:	685b      	ldr	r3, [r3, #4]
  fc:	4608      	mov	r0, r1
  fe:	4611      	mov	r1, r2
 100:	461a      	mov	r2, r3
 102:	f7ff fffe 	bl	0 <_ZNSt5dequeIjSaIjEE17_M_reallocate_mapEjb>
 106:	68fb      	ldr	r3, [r7, #12]
 108:	697a      	ldr	r2, [r7, #20]
 10a:	601a      	str	r2, [r3, #0]
 10c:	68fb      	ldr	r3, [r7, #12]
 10e:	69ba      	ldr	r2, [r7, #24]
 110:	605a      	str	r2, [r3, #4]
 112:	68fb      	ldr	r3, [r7, #12]
 114:	3308      	adds	r3, #8
 116:	4618      	mov	r0, r3
 118:	6a79      	ldr	r1, [r7, #36]	; 0x24
 11a:	f7ff fffe 	bl	0 <_ZNSt5dequeIjSaIjEE17_M_reallocate_mapEjb>
 11e:	68fb      	ldr	r3, [r7, #12]
 120:	f103 0118 	add.w	r1, r3, #24
 124:	6a3b      	ldr	r3, [r7, #32]
 126:	f103 4380 	add.w	r3, r3, #1073741824	; 0x40000000
 12a:	3b01      	subs	r3, #1
 12c:	009b      	lsls	r3, r3, #2
 12e:	6a7a      	ldr	r2, [r7, #36]	; 0x24
 130:	4413      	add	r3, r2
 132:	4608      	mov	r0, r1
 134:	4619      	mov	r1, r3
 136:	f7ff fffe 	bl	0 <_ZNSt5dequeIjSaIjEE17_M_reallocate_mapEjb>
 13a:	372c      	adds	r7, #44	; 0x2c
 13c:	46bd      	mov	sp, r7
 13e:	bd90      	pop	{r4, r7, pc}

Disassembly of section .text._ZN9__gnu_cxx13new_allocatorIjE8allocateEjPKv:

00000000 <_ZN9__gnu_cxx13new_allocatorIjE8allocateEjPKv>:
   0:	b580      	push	{r7, lr}
   2:	b084      	sub	sp, #16
   4:	af00      	add	r7, sp, #0
   6:	60f8      	str	r0, [r7, #12]
   8:	60b9      	str	r1, [r7, #8]
   a:	607a      	str	r2, [r7, #4]
   c:	68f8      	ldr	r0, [r7, #12]
   e:	f7ff fffe 	bl	0 <_ZN9__gnu_cxx13new_allocatorIjE8allocateEjPKv>
  12:	4602      	mov	r2, r0
  14:	68bb      	ldr	r3, [r7, #8]
  16:	429a      	cmp	r2, r3
  18:	bf34      	ite	cc
  1a:	2301      	movcc	r3, #1
  1c:	2300      	movcs	r3, #0
  1e:	b2db      	uxtb	r3, r3
  20:	2b00      	cmp	r3, #0
  22:	d001      	beq.n	28 <_ZN9__gnu_cxx13new_allocatorIjE8allocateEjPKv+0x28>
  24:	f7ff fffe 	bl	0 <_ZSt17__throw_bad_allocv>
  28:	68bb      	ldr	r3, [r7, #8]
  2a:	009b      	lsls	r3, r3, #2
  2c:	4618      	mov	r0, r3
  2e:	f7ff fffe 	bl	0 <_Znwj>
  32:	4603      	mov	r3, r0
  34:	4618      	mov	r0, r3
  36:	3710      	adds	r7, #16
  38:	46bd      	mov	sp, r7
  3a:	bd80      	pop	{r7, pc}

Disassembly of section .text._ZNK9__gnu_cxx13new_allocatorIPjE8max_sizeEv:

00000000 <_ZNK9__gnu_cxx13new_allocatorIPjE8max_sizeEv>:
   0:	b480      	push	{r7}
   2:	b083      	sub	sp, #12
   4:	af00      	add	r7, sp, #0
   6:	6078      	str	r0, [r7, #4]
   8:	f06f 4340 	mvn.w	r3, #3221225472	; 0xc0000000
   c:	4618      	mov	r0, r3
   e:	370c      	adds	r7, #12
  10:	46bd      	mov	sp, r7
  12:	f85d 7b04 	ldr.w	r7, [sp], #4
  16:	4770      	bx	lr

Disassembly of section .text._ZN9__gnu_cxx13new_allocatorIPjEC2Ev:

00000000 <_ZN9__gnu_cxx13new_allocatorIPjEC1Ev>:
   0:	b480      	push	{r7}
   2:	b083      	sub	sp, #12
   4:	af00      	add	r7, sp, #0
   6:	6078      	str	r0, [r7, #4]
   8:	687b      	ldr	r3, [r7, #4]
   a:	4618      	mov	r0, r3
   c:	370c      	adds	r7, #12
   e:	46bd      	mov	sp, r7
  10:	f85d 7b04 	ldr.w	r7, [sp], #4
  14:	4770      	bx	lr
  16:	bf00      	nop

Disassembly of section .text._ZN9__gnu_cxx13new_allocatorIjEC2ERKS1_:

00000000 <_ZN9__gnu_cxx13new_allocatorIjEC1ERKS1_>:
   0:	b480      	push	{r7}
   2:	b083      	sub	sp, #12
   4:	af00      	add	r7, sp, #0
   6:	6078      	str	r0, [r7, #4]
   8:	6039      	str	r1, [r7, #0]
   a:	687b      	ldr	r3, [r7, #4]
   c:	4618      	mov	r0, r3
   e:	370c      	adds	r7, #12
  10:	46bd      	mov	sp, r7
  12:	f85d 7b04 	ldr.w	r7, [sp], #4
  16:	4770      	bx	lr

Disassembly of section .text._ZSt4copyISt15_Deque_iteratorIjRKjPS1_ES0_IjRjPjEET0_T_S9_S8_:

00000000 <_ZSt4copyISt15_Deque_iteratorIjRKjPS1_ES0_IjRjPjEET0_T_S9_S8_>:
   0:	b084      	sub	sp, #16
   2:	b5b0      	push	{r4, r5, r7, lr}
   4:	b094      	sub	sp, #80	; 0x50
   6:	af06      	add	r7, sp, #24
   8:	6078      	str	r0, [r7, #4]
   a:	f107 004c 	add.w	r0, r7, #76	; 0x4c
   e:	e880 000e 	stmia.w	r0, {r1, r2, r3}
  12:	f107 0008 	add.w	r0, r7, #8
  16:	6dbb      	ldr	r3, [r7, #88]	; 0x58
  18:	9300      	str	r3, [sp, #0]
  1a:	f107 034c 	add.w	r3, r7, #76	; 0x4c
  1e:	cb0e      	ldmia	r3, {r1, r2, r3}
  20:	f7ff fffe 	bl	0 <_ZSt4copyISt15_Deque_iteratorIjRKjPS1_ES0_IjRjPjEET0_T_S9_S8_>
  24:	f107 0018 	add.w	r0, r7, #24
  28:	6ebb      	ldr	r3, [r7, #104]	; 0x68
  2a:	9300      	str	r3, [sp, #0]
  2c:	f107 035c 	add.w	r3, r7, #92	; 0x5c
  30:	cb0e      	ldmia	r3, {r1, r2, r3}
  32:	f7ff fffe 	bl	0 <_ZSt4copyISt15_Deque_iteratorIjRKjPS1_ES0_IjRjPjEET0_T_S9_S8_>
  36:	f107 0328 	add.w	r3, r7, #40	; 0x28
  3a:	4618      	mov	r0, r3
  3c:	6ef9      	ldr	r1, [r7, #108]	; 0x6c
  3e:	f7ff fffe 	bl	0 <_ZSt4copyISt15_Deque_iteratorIjRKjPS1_ES0_IjRjPjEET0_T_S9_S8_>
  42:	687d      	ldr	r5, [r7, #4]
  44:	ac01      	add	r4, sp, #4
  46:	f107 0318 	add.w	r3, r7, #24
  4a:	cb0f      	ldmia	r3, {r0, r1, r2, r3}
  4c:	e884 000f 	stmia.w	r4, {r0, r1, r2, r3}
  50:	f107 0328 	add.w	r3, r7, #40	; 0x28
  54:	9305      	str	r3, [sp, #20]
  56:	697b      	ldr	r3, [r7, #20]
  58:	9300      	str	r3, [sp, #0]
  5a:	f107 0308 	add.w	r3, r7, #8
  5e:	cb0e      	ldmia	r3, {r1, r2, r3}
  60:	4628      	mov	r0, r5
  62:	f7ff fffe 	bl	0 <_ZSt4copyISt15_Deque_iteratorIjRKjPS1_ES0_IjRjPjEET0_T_S9_S8_>
  66:	6878      	ldr	r0, [r7, #4]
  68:	3738      	adds	r7, #56	; 0x38
  6a:	46bd      	mov	sp, r7
  6c:	e8bd 40b0 	ldmia.w	sp!, {r4, r5, r7, lr}
  70:	b004      	add	sp, #16
  72:	4770      	bx	lr

Disassembly of section .text._ZN9__gnu_cxx14__alloc_traitsISaISt13_Rb_tree_nodeISt4pairIKjP6BBInfoEEEE8allocateERS8_j:

00000000 <_ZN9__gnu_cxx14__alloc_traitsISaISt13_Rb_tree_nodeISt4pairIKjP6BBInfoEEEE8allocateERS8_j>:
   0:	b580      	push	{r7, lr}
   2:	b082      	sub	sp, #8
   4:	af00      	add	r7, sp, #0
   6:	6078      	str	r0, [r7, #4]
   8:	6039      	str	r1, [r7, #0]
   a:	6878      	ldr	r0, [r7, #4]
   c:	6839      	ldr	r1, [r7, #0]
   e:	2200      	movs	r2, #0
  10:	f7ff fffe 	bl	0 <_ZN9__gnu_cxx14__alloc_traitsISaISt13_Rb_tree_nodeISt4pairIKjP6BBInfoEEEE8allocateERS8_j>
  14:	4603      	mov	r3, r0
  16:	4618      	mov	r0, r3
  18:	3708      	adds	r7, #8
  1a:	46bd      	mov	sp, r7
  1c:	bd80      	pop	{r7, pc}
  1e:	bf00      	nop

Disassembly of section .text._ZNSt8_Rb_treeIjSt4pairIKjP6BBInfoESt10_Select1stIS4_ESt4lessIjESaIS4_EE21_M_get_Node_allocatorEv:

00000000 <_ZNSt8_Rb_treeIjSt4pairIKjP6BBInfoESt10_Select1stIS4_ESt4lessIjESaIS4_EE21_M_get_Node_allocatorEv>:
   0:	b480      	push	{r7}
   2:	b083      	sub	sp, #12
   4:	af00      	add	r7, sp, #0
   6:	6078      	str	r0, [r7, #4]
   8:	687b      	ldr	r3, [r7, #4]
   a:	4618      	mov	r0, r3
   c:	370c      	adds	r7, #12
   e:	46bd      	mov	sp, r7
  10:	f85d 7b04 	ldr.w	r7, [sp], #4
  14:	4770      	bx	lr
  16:	bf00      	nop

Disassembly of section .text._ZNKSt8_Rb_treeIjSt4pairIKjP6BBInfoESt10_Select1stIS4_ESt4lessIjESaIS4_EE21_M_get_Node_allocatorEv:

00000000 <_ZNKSt8_Rb_treeIjSt4pairIKjP6BBInfoESt10_Select1stIS4_ESt4lessIjESaIS4_EE21_M_get_Node_allocatorEv>:
   0:	b480      	push	{r7}
   2:	b083      	sub	sp, #12
   4:	af00      	add	r7, sp, #0
   6:	6078      	str	r0, [r7, #4]
   8:	687b      	ldr	r3, [r7, #4]
   a:	4618      	mov	r0, r3
   c:	370c      	adds	r7, #12
   e:	46bd      	mov	sp, r7
  10:	f85d 7b04 	ldr.w	r7, [sp], #4
  14:	4770      	bx	lr
  16:	bf00      	nop

Disassembly of section .text._ZNSaISt4pairIKjP6BBInfoEEC2ISt13_Rb_tree_nodeIS3_EEERKSaIT_E:

00000000 <_ZNSaISt4pairIKjP6BBInfoEEC1ISt13_Rb_tree_nodeIS3_EEERKSaIT_E>:
   0:	b580      	push	{r7, lr}
   2:	b082      	sub	sp, #8
   4:	af00      	add	r7, sp, #0
   6:	6078      	str	r0, [r7, #4]
   8:	6039      	str	r1, [r7, #0]
   a:	6878      	ldr	r0, [r7, #4]
   c:	f7ff fffe 	bl	0 <_ZNSaISt4pairIKjP6BBInfoEEC1ISt13_Rb_tree_nodeIS3_EEERKSaIT_E>
  10:	687b      	ldr	r3, [r7, #4]
  12:	4618      	mov	r0, r3
  14:	3708      	adds	r7, #8
  16:	46bd      	mov	sp, r7
  18:	bd80      	pop	{r7, pc}
  1a:	bf00      	nop

Disassembly of section .text._ZN9__gnu_cxx13new_allocatorISt4pairIKjP6BBInfoEED2Ev:

00000000 <_ZN9__gnu_cxx13new_allocatorISt4pairIKjP6BBInfoEED1Ev>:
   0:	b480      	push	{r7}
   2:	b083      	sub	sp, #12
   4:	af00      	add	r7, sp, #0
   6:	6078      	str	r0, [r7, #4]
   8:	687b      	ldr	r3, [r7, #4]
   a:	4618      	mov	r0, r3
   c:	370c      	adds	r7, #12
   e:	46bd      	mov	sp, r7
  10:	f85d 7b04 	ldr.w	r7, [sp], #4
  14:	4770      	bx	lr
  16:	bf00      	nop

Disassembly of section .text._ZN9__gnu_cxx14__alloc_traitsISaISt13_Rb_tree_nodeISt4pairIKjP6BBInfoEEEE10deallocateERS8_PS7_j:

00000000 <_ZN9__gnu_cxx14__alloc_traitsISaISt13_Rb_tree_nodeISt4pairIKjP6BBInfoEEEE10deallocateERS8_PS7_j>:
   0:	b580      	push	{r7, lr}
   2:	b084      	sub	sp, #16
   4:	af00      	add	r7, sp, #0
   6:	60f8      	str	r0, [r7, #12]
   8:	60b9      	str	r1, [r7, #8]
   a:	607a      	str	r2, [r7, #4]
   c:	68f8      	ldr	r0, [r7, #12]
   e:	68b9      	ldr	r1, [r7, #8]
  10:	687a      	ldr	r2, [r7, #4]
  12:	f7ff fffe 	bl	0 <_ZN9__gnu_cxx14__alloc_traitsISaISt13_Rb_tree_nodeISt4pairIKjP6BBInfoEEEE10deallocateERS8_PS7_j>
  16:	3710      	adds	r7, #16
  18:	46bd      	mov	sp, r7
  1a:	bd80      	pop	{r7, pc}

Disassembly of section .text._ZSt11__addressofIKSt4pairIKjP6BBInfoEEPT_RS6_:

00000000 <_ZSt11__addressofIKSt4pairIKjP6BBInfoEEPT_RS6_>:
   0:	b480      	push	{r7}
   2:	b083      	sub	sp, #12
   4:	af00      	add	r7, sp, #0
   6:	6078      	str	r0, [r7, #4]
   8:	687b      	ldr	r3, [r7, #4]
   a:	4618      	mov	r0, r3
   c:	370c      	adds	r7, #12
   e:	46bd      	mov	sp, r7
  10:	f85d 7b04 	ldr.w	r7, [sp], #4
  14:	4770      	bx	lr
  16:	bf00      	nop

Disassembly of section .text._ZSt4copyIPPjS1_ET0_T_S3_S2_:

00000000 <_ZSt4copyIPPjS1_ET0_T_S3_S2_>:
   0:	b590      	push	{r4, r7, lr}
   2:	b085      	sub	sp, #20
   4:	af00      	add	r7, sp, #0
   6:	60f8      	str	r0, [r7, #12]
   8:	60b9      	str	r1, [r7, #8]
   a:	607a      	str	r2, [r7, #4]
   c:	68f8      	ldr	r0, [r7, #12]
   e:	f7ff fffe 	bl	0 <_ZSt4copyIPPjS1_ET0_T_S3_S2_>
  12:	4604      	mov	r4, r0
  14:	68b8      	ldr	r0, [r7, #8]
  16:	f7ff fffe 	bl	0 <_ZSt4copyIPPjS1_ET0_T_S3_S2_>
  1a:	4603      	mov	r3, r0
  1c:	4620      	mov	r0, r4
  1e:	4619      	mov	r1, r3
  20:	687a      	ldr	r2, [r7, #4]
  22:	f7ff fffe 	bl	0 <_ZSt4copyIPPjS1_ET0_T_S3_S2_>
  26:	4603      	mov	r3, r0
  28:	4618      	mov	r0, r3
  2a:	3714      	adds	r7, #20
  2c:	46bd      	mov	sp, r7
  2e:	bd90      	pop	{r4, r7, pc}

Disassembly of section .text._ZSt13copy_backwardIPPjS1_ET0_T_S3_S2_:

00000000 <_ZSt13copy_backwardIPPjS1_ET0_T_S3_S2_>:
   0:	b590      	push	{r4, r7, lr}
   2:	b085      	sub	sp, #20
   4:	af00      	add	r7, sp, #0
   6:	60f8      	str	r0, [r7, #12]
   8:	60b9      	str	r1, [r7, #8]
   a:	607a      	str	r2, [r7, #4]
   c:	68f8      	ldr	r0, [r7, #12]
   e:	f7ff fffe 	bl	0 <_ZSt13copy_backwardIPPjS1_ET0_T_S3_S2_>
  12:	4604      	mov	r4, r0
  14:	68b8      	ldr	r0, [r7, #8]
  16:	f7ff fffe 	bl	0 <_ZSt13copy_backwardIPPjS1_ET0_T_S3_S2_>
  1a:	4603      	mov	r3, r0
  1c:	4620      	mov	r0, r4
  1e:	4619      	mov	r1, r3
  20:	687a      	ldr	r2, [r7, #4]
  22:	f7ff fffe 	bl	0 <_ZSt13copy_backwardIPPjS1_ET0_T_S3_S2_>
  26:	4603      	mov	r3, r0
  28:	4618      	mov	r0, r3
  2a:	3714      	adds	r7, #20
  2c:	46bd      	mov	sp, r7
  2e:	bd90      	pop	{r4, r7, pc}

Disassembly of section .text._ZNK9__gnu_cxx13new_allocatorIjE8max_sizeEv:

00000000 <_ZNK9__gnu_cxx13new_allocatorIjE8max_sizeEv>:
   0:	b480      	push	{r7}
   2:	b083      	sub	sp, #12
   4:	af00      	add	r7, sp, #0
   6:	6078      	str	r0, [r7, #4]
   8:	f06f 4340 	mvn.w	r3, #3221225472	; 0xc0000000
   c:	4618      	mov	r0, r3
   e:	370c      	adds	r7, #12
  10:	46bd      	mov	sp, r7
  12:	f85d 7b04 	ldr.w	r7, [sp], #4
  16:	4770      	bx	lr

Disassembly of section .text._ZSt12__miter_baseISt15_Deque_iteratorIjRKjPS1_EENSt11_Miter_baseIT_E13iterator_typeES6_:

00000000 <_ZSt12__miter_baseISt15_Deque_iteratorIjRKjPS1_EENSt11_Miter_baseIT_E13iterator_typeES6_>:
   0:	b084      	sub	sp, #16
   2:	b580      	push	{r7, lr}
   4:	b084      	sub	sp, #16
   6:	af02      	add	r7, sp, #8
   8:	6078      	str	r0, [r7, #4]
   a:	f107 0014 	add.w	r0, r7, #20
   e:	e880 000e 	stmia.w	r0, {r1, r2, r3}
  12:	6878      	ldr	r0, [r7, #4]
  14:	6a3b      	ldr	r3, [r7, #32]
  16:	9300      	str	r3, [sp, #0]
  18:	f107 0314 	add.w	r3, r7, #20
  1c:	cb0e      	ldmia	r3, {r1, r2, r3}
  1e:	f7ff fffe 	bl	0 <_ZSt12__miter_baseISt15_Deque_iteratorIjRKjPS1_EENSt11_Miter_baseIT_E13iterator_typeES6_>
  22:	6878      	ldr	r0, [r7, #4]
  24:	3708      	adds	r7, #8
  26:	46bd      	mov	sp, r7
  28:	e8bd 4080 	ldmia.w	sp!, {r7, lr}
  2c:	b004      	add	sp, #16
  2e:	4770      	bx	lr

Disassembly of section .text._ZSt14__copy_move_a2ILb0ESt15_Deque_iteratorIjRKjPS1_ES0_IjRjPjEET1_T0_S9_S8_:

00000000 <_ZSt14__copy_move_a2ILb0ESt15_Deque_iteratorIjRKjPS1_ES0_IjRjPjEET1_T0_S9_S8_>:
   0:	b084      	sub	sp, #16
   2:	b5b0      	push	{r4, r5, r7, lr}
   4:	b098      	sub	sp, #96	; 0x60
   6:	af06      	add	r7, sp, #24
   8:	6078      	str	r0, [r7, #4]
   a:	f107 005c 	add.w	r0, r7, #92	; 0x5c
   e:	e880 000e 	stmia.w	r0, {r1, r2, r3}
  12:	f107 0008 	add.w	r0, r7, #8
  16:	6ebb      	ldr	r3, [r7, #104]	; 0x68
  18:	9300      	str	r3, [sp, #0]
  1a:	f107 035c 	add.w	r3, r7, #92	; 0x5c
  1e:	cb0e      	ldmia	r3, {r1, r2, r3}
  20:	f7ff fffe 	bl	0 <_ZSt14__copy_move_a2ILb0ESt15_Deque_iteratorIjRKjPS1_ES0_IjRjPjEET1_T0_S9_S8_>
  24:	f107 0018 	add.w	r0, r7, #24
  28:	6fbb      	ldr	r3, [r7, #120]	; 0x78
  2a:	9300      	str	r3, [sp, #0]
  2c:	f107 036c 	add.w	r3, r7, #108	; 0x6c
  30:	cb0e      	ldmia	r3, {r1, r2, r3}
  32:	f7ff fffe 	bl	0 <_ZSt14__copy_move_a2ILb0ESt15_Deque_iteratorIjRKjPS1_ES0_IjRjPjEET1_T0_S9_S8_>
  36:	f107 0338 	add.w	r3, r7, #56	; 0x38
  3a:	4618      	mov	r0, r3
  3c:	6ff9      	ldr	r1, [r7, #124]	; 0x7c
  3e:	f7ff fffe 	bl	0 <_ZSt14__copy_move_a2ILb0ESt15_Deque_iteratorIjRKjPS1_ES0_IjRjPjEET1_T0_S9_S8_>
  42:	f107 0228 	add.w	r2, r7, #40	; 0x28
  46:	f107 0338 	add.w	r3, r7, #56	; 0x38
  4a:	4610      	mov	r0, r2
  4c:	4619      	mov	r1, r3
  4e:	f7ff fffe 	bl	0 <_ZSt14__copy_move_a2ILb0ESt15_Deque_iteratorIjRKjPS1_ES0_IjRjPjEET1_T0_S9_S8_>
  52:	687d      	ldr	r5, [r7, #4]
  54:	ac01      	add	r4, sp, #4
  56:	f107 0318 	add.w	r3, r7, #24
  5a:	cb0f      	ldmia	r3, {r0, r1, r2, r3}
  5c:	e884 000f 	stmia.w	r4, {r0, r1, r2, r3}
  60:	f107 0328 	add.w	r3, r7, #40	; 0x28
  64:	9305      	str	r3, [sp, #20]
  66:	697b      	ldr	r3, [r7, #20]
  68:	9300      	str	r3, [sp, #0]
  6a:	f107 0308 	add.w	r3, r7, #8
  6e:	cb0e      	ldmia	r3, {r1, r2, r3}
  70:	4628      	mov	r0, r5
  72:	f7ff fffe 	bl	0 <_ZSt14__copy_move_a2ILb0ESt15_Deque_iteratorIjRKjPS1_ES0_IjRjPjEET1_T0_S9_S8_>
  76:	6878      	ldr	r0, [r7, #4]
  78:	3748      	adds	r7, #72	; 0x48
  7a:	46bd      	mov	sp, r7
  7c:	e8bd 40b0 	ldmia.w	sp!, {r4, r5, r7, lr}
  80:	b004      	add	sp, #16
  82:	4770      	bx	lr

Disassembly of section .text._ZN9__gnu_cxx13new_allocatorISt13_Rb_tree_nodeISt4pairIKjP6BBInfoEEE8allocateEjPKv:

00000000 <_ZN9__gnu_cxx13new_allocatorISt13_Rb_tree_nodeISt4pairIKjP6BBInfoEEE8allocateEjPKv>:
   0:	b580      	push	{r7, lr}
   2:	b084      	sub	sp, #16
   4:	af00      	add	r7, sp, #0
   6:	60f8      	str	r0, [r7, #12]
   8:	60b9      	str	r1, [r7, #8]
   a:	607a      	str	r2, [r7, #4]
   c:	68f8      	ldr	r0, [r7, #12]
   e:	f7ff fffe 	bl	0 <_ZN9__gnu_cxx13new_allocatorISt13_Rb_tree_nodeISt4pairIKjP6BBInfoEEE8allocateEjPKv>
  12:	4602      	mov	r2, r0
  14:	68bb      	ldr	r3, [r7, #8]
  16:	429a      	cmp	r2, r3
  18:	bf34      	ite	cc
  1a:	2301      	movcc	r3, #1
  1c:	2300      	movcs	r3, #0
  1e:	b2db      	uxtb	r3, r3
  20:	2b00      	cmp	r3, #0
  22:	d001      	beq.n	28 <_ZN9__gnu_cxx13new_allocatorISt13_Rb_tree_nodeISt4pairIKjP6BBInfoEEE8allocateEjPKv+0x28>
  24:	f7ff fffe 	bl	0 <_ZSt17__throw_bad_allocv>
  28:	68ba      	ldr	r2, [r7, #8]
  2a:	4613      	mov	r3, r2
  2c:	005b      	lsls	r3, r3, #1
  2e:	4413      	add	r3, r2
  30:	00db      	lsls	r3, r3, #3
  32:	4618      	mov	r0, r3
  34:	f7ff fffe 	bl	0 <_Znwj>
  38:	4603      	mov	r3, r0
  3a:	4618      	mov	r0, r3
  3c:	3710      	adds	r7, #16
  3e:	46bd      	mov	sp, r7
  40:	bd80      	pop	{r7, pc}
  42:	bf00      	nop

Disassembly of section .text._ZN9__gnu_cxx13new_allocatorISt4pairIKjP6BBInfoEEC2Ev:

00000000 <_ZN9__gnu_cxx13new_allocatorISt4pairIKjP6BBInfoEEC1Ev>:
   0:	b480      	push	{r7}
   2:	b083      	sub	sp, #12
   4:	af00      	add	r7, sp, #0
   6:	6078      	str	r0, [r7, #4]
   8:	687b      	ldr	r3, [r7, #4]
   a:	4618      	mov	r0, r3
   c:	370c      	adds	r7, #12
   e:	46bd      	mov	sp, r7
  10:	f85d 7b04 	ldr.w	r7, [sp], #4
  14:	4770      	bx	lr
  16:	bf00      	nop

Disassembly of section .text._ZN9__gnu_cxx13new_allocatorISt13_Rb_tree_nodeISt4pairIKjP6BBInfoEEE10deallocateEPS7_j:

00000000 <_ZN9__gnu_cxx13new_allocatorISt13_Rb_tree_nodeISt4pairIKjP6BBInfoEEE10deallocateEPS7_j>:
   0:	b580      	push	{r7, lr}
   2:	b084      	sub	sp, #16
   4:	af00      	add	r7, sp, #0
   6:	60f8      	str	r0, [r7, #12]
   8:	60b9      	str	r1, [r7, #8]
   a:	607a      	str	r2, [r7, #4]
   c:	68b8      	ldr	r0, [r7, #8]
   e:	f7ff fffe 	bl	0 <_ZdlPv>
  12:	3710      	adds	r7, #16
  14:	46bd      	mov	sp, r7
  16:	bd80      	pop	{r7, pc}

Disassembly of section .text._ZSt12__miter_baseIPPjENSt11_Miter_baseIT_E13iterator_typeES3_:

00000000 <_ZSt12__miter_baseIPPjENSt11_Miter_baseIT_E13iterator_typeES3_>:
   0:	b580      	push	{r7, lr}
   2:	b082      	sub	sp, #8
   4:	af00      	add	r7, sp, #0
   6:	6078      	str	r0, [r7, #4]
   8:	6878      	ldr	r0, [r7, #4]
   a:	f7ff fffe 	bl	0 <_ZSt12__miter_baseIPPjENSt11_Miter_baseIT_E13iterator_typeES3_>
   e:	4603      	mov	r3, r0
  10:	4618      	mov	r0, r3
  12:	3708      	adds	r7, #8
  14:	46bd      	mov	sp, r7
  16:	bd80      	pop	{r7, pc}

Disassembly of section .text._ZSt14__copy_move_a2ILb0EPPjS1_ET1_T0_S3_S2_:

00000000 <_ZSt14__copy_move_a2ILb0EPPjS1_ET1_T0_S3_S2_>:
   0:	b5b0      	push	{r4, r5, r7, lr}
   2:	b084      	sub	sp, #16
   4:	af00      	add	r7, sp, #0
   6:	60f8      	str	r0, [r7, #12]
   8:	60b9      	str	r1, [r7, #8]
   a:	607a      	str	r2, [r7, #4]
   c:	68f8      	ldr	r0, [r7, #12]
   e:	f7ff fffe 	bl	0 <_ZSt14__copy_move_a2ILb0EPPjS1_ET1_T0_S3_S2_>
  12:	4605      	mov	r5, r0
  14:	68b8      	ldr	r0, [r7, #8]
  16:	f7ff fffe 	bl	0 <_ZSt14__copy_move_a2ILb0EPPjS1_ET1_T0_S3_S2_>
  1a:	4604      	mov	r4, r0
  1c:	6878      	ldr	r0, [r7, #4]
  1e:	f7ff fffe 	bl	0 <_ZSt14__copy_move_a2ILb0EPPjS1_ET1_T0_S3_S2_>
  22:	4603      	mov	r3, r0
  24:	4628      	mov	r0, r5
  26:	4621      	mov	r1, r4
  28:	461a      	mov	r2, r3
  2a:	f7ff fffe 	bl	0 <_ZSt14__copy_move_a2ILb0EPPjS1_ET1_T0_S3_S2_>
  2e:	4603      	mov	r3, r0
  30:	4618      	mov	r0, r3
  32:	3710      	adds	r7, #16
  34:	46bd      	mov	sp, r7
  36:	bdb0      	pop	{r4, r5, r7, pc}

Disassembly of section .text._ZSt23__copy_move_backward_a2ILb0EPPjS1_ET1_T0_S3_S2_:

00000000 <_ZSt23__copy_move_backward_a2ILb0EPPjS1_ET1_T0_S3_S2_>:
   0:	b5b0      	push	{r4, r5, r7, lr}
   2:	b084      	sub	sp, #16
   4:	af00      	add	r7, sp, #0
   6:	60f8      	str	r0, [r7, #12]
   8:	60b9      	str	r1, [r7, #8]
   a:	607a      	str	r2, [r7, #4]
   c:	68f8      	ldr	r0, [r7, #12]
   e:	f7ff fffe 	bl	0 <_ZSt23__copy_move_backward_a2ILb0EPPjS1_ET1_T0_S3_S2_>
  12:	4605      	mov	r5, r0
  14:	68b8      	ldr	r0, [r7, #8]
  16:	f7ff fffe 	bl	0 <_ZSt23__copy_move_backward_a2ILb0EPPjS1_ET1_T0_S3_S2_>
  1a:	4604      	mov	r4, r0
  1c:	6878      	ldr	r0, [r7, #4]
  1e:	f7ff fffe 	bl	0 <_ZSt23__copy_move_backward_a2ILb0EPPjS1_ET1_T0_S3_S2_>
  22:	4603      	mov	r3, r0
  24:	4628      	mov	r0, r5
  26:	4621      	mov	r1, r4
  28:	461a      	mov	r2, r3
  2a:	f7ff fffe 	bl	0 <_ZSt23__copy_move_backward_a2ILb0EPPjS1_ET1_T0_S3_S2_>
  2e:	4603      	mov	r3, r0
  30:	4618      	mov	r0, r3
  32:	3710      	adds	r7, #16
  34:	46bd      	mov	sp, r7
  36:	bdb0      	pop	{r4, r5, r7, pc}

Disassembly of section .text._ZNSt10_Iter_baseISt15_Deque_iteratorIjRKjPS1_ELb0EE7_S_baseES4_:

00000000 <_ZNSt10_Iter_baseISt15_Deque_iteratorIjRKjPS1_ELb0EE7_S_baseES4_>:
   0:	b084      	sub	sp, #16
   2:	b490      	push	{r4, r7}
   4:	b082      	sub	sp, #8
   6:	af00      	add	r7, sp, #0
   8:	6078      	str	r0, [r7, #4]
   a:	f107 0014 	add.w	r0, r7, #20
   e:	e880 000e 	stmia.w	r0, {r1, r2, r3}
  12:	687b      	ldr	r3, [r7, #4]
  14:	461c      	mov	r4, r3
  16:	f107 0314 	add.w	r3, r7, #20
  1a:	cb0f      	ldmia	r3, {r0, r1, r2, r3}
  1c:	e884 000f 	stmia.w	r4, {r0, r1, r2, r3}
  20:	6878      	ldr	r0, [r7, #4]
  22:	3708      	adds	r7, #8
  24:	46bd      	mov	sp, r7
  26:	bc90      	pop	{r4, r7}
  28:	b004      	add	sp, #16
  2a:	4770      	bx	lr

Disassembly of section .text._ZSt12__niter_baseISt15_Deque_iteratorIjRKjPS1_EENSt11_Niter_baseIT_E13iterator_typeES6_:

00000000 <_ZSt12__niter_baseISt15_Deque_iteratorIjRKjPS1_EENSt11_Niter_baseIT_E13iterator_typeES6_>:
   0:	b084      	sub	sp, #16
   2:	b580      	push	{r7, lr}
   4:	b084      	sub	sp, #16
   6:	af02      	add	r7, sp, #8
   8:	6078      	str	r0, [r7, #4]
   a:	f107 0014 	add.w	r0, r7, #20
   e:	e880 000e 	stmia.w	r0, {r1, r2, r3}
  12:	6878      	ldr	r0, [r7, #4]
  14:	6a3b      	ldr	r3, [r7, #32]
  16:	9300      	str	r3, [sp, #0]
  18:	f107 0314 	add.w	r3, r7, #20
  1c:	cb0e      	ldmia	r3, {r1, r2, r3}
  1e:	f7ff fffe 	bl	0 <_ZSt12__niter_baseISt15_Deque_iteratorIjRKjPS1_EENSt11_Niter_baseIT_E13iterator_typeES6_>
  22:	6878      	ldr	r0, [r7, #4]
  24:	3708      	adds	r7, #8
  26:	46bd      	mov	sp, r7
  28:	e8bd 4080 	ldmia.w	sp!, {r7, lr}
  2c:	b004      	add	sp, #16
  2e:	4770      	bx	lr

Disassembly of section .text._ZSt12__niter_baseISt15_Deque_iteratorIjRjPjEENSt11_Niter_baseIT_E13iterator_typeES5_:

00000000 <_ZSt12__niter_baseISt15_Deque_iteratorIjRjPjEENSt11_Niter_baseIT_E13iterator_typeES5_>:
   0:	b580      	push	{r7, lr}
   2:	b086      	sub	sp, #24
   4:	af00      	add	r7, sp, #0
   6:	6078      	str	r0, [r7, #4]
   8:	6039      	str	r1, [r7, #0]
   a:	f107 0308 	add.w	r3, r7, #8
   e:	4618      	mov	r0, r3
  10:	6839      	ldr	r1, [r7, #0]
  12:	f7ff fffe 	bl	0 <_ZSt12__niter_baseISt15_Deque_iteratorIjRjPjEENSt11_Niter_baseIT_E13iterator_typeES5_>
  16:	687a      	ldr	r2, [r7, #4]
  18:	f107 0308 	add.w	r3, r7, #8
  1c:	4610      	mov	r0, r2
  1e:	4619      	mov	r1, r3
  20:	f7ff fffe 	bl	0 <_ZSt12__niter_baseISt15_Deque_iteratorIjRjPjEENSt11_Niter_baseIT_E13iterator_typeES5_>
  24:	6878      	ldr	r0, [r7, #4]
  26:	3718      	adds	r7, #24
  28:	46bd      	mov	sp, r7
  2a:	bd80      	pop	{r7, pc}

Disassembly of section .text._ZSt13__copy_move_aILb0ESt15_Deque_iteratorIjRKjPS1_ES0_IjRjPjEET1_T0_S9_S8_:

00000000 <_ZSt13__copy_move_aILb0ESt15_Deque_iteratorIjRKjPS1_ES0_IjRjPjEET1_T0_S9_S8_>:
   0:	b084      	sub	sp, #16
   2:	b5b0      	push	{r4, r5, r7, lr}
   4:	b08e      	sub	sp, #56	; 0x38
   6:	af06      	add	r7, sp, #24
   8:	6078      	str	r0, [r7, #4]
   a:	f107 0034 	add.w	r0, r7, #52	; 0x34
   e:	e880 000e 	stmia.w	r0, {r1, r2, r3}
  12:	2300      	movs	r3, #0
  14:	77fb      	strb	r3, [r7, #31]
  16:	f107 030c 	add.w	r3, r7, #12
  1a:	4618      	mov	r0, r3
  1c:	6d79      	ldr	r1, [r7, #84]	; 0x54
  1e:	f7ff fffe 	bl	0 <_ZSt13__copy_move_aILb0ESt15_Deque_iteratorIjRKjPS1_ES0_IjRjPjEET1_T0_S9_S8_>
  22:	687d      	ldr	r5, [r7, #4]
  24:	ac01      	add	r4, sp, #4
  26:	f107 0344 	add.w	r3, r7, #68	; 0x44
  2a:	cb0f      	ldmia	r3, {r0, r1, r2, r3}
  2c:	e884 000f 	stmia.w	r4, {r0, r1, r2, r3}
  30:	f107 030c 	add.w	r3, r7, #12
  34:	9305      	str	r3, [sp, #20]
  36:	6c3b      	ldr	r3, [r7, #64]	; 0x40
  38:	9300      	str	r3, [sp, #0]
  3a:	f107 0334 	add.w	r3, r7, #52	; 0x34
  3e:	cb0e      	ldmia	r3, {r1, r2, r3}
  40:	4628      	mov	r0, r5
  42:	f7ff fffe 	bl	0 <_ZSt13__copy_move_aILb0ESt15_Deque_iteratorIjRKjPS1_ES0_IjRjPjEET1_T0_S9_S8_>
  46:	6878      	ldr	r0, [r7, #4]
  48:	3720      	adds	r7, #32
  4a:	46bd      	mov	sp, r7
  4c:	e8bd 40b0 	ldmia.w	sp!, {r4, r5, r7, lr}
  50:	b004      	add	sp, #16
  52:	4770      	bx	lr

Disassembly of section .text._ZNK9__gnu_cxx13new_allocatorISt13_Rb_tree_nodeISt4pairIKjP6BBInfoEEE8max_sizeEv:

00000000 <_ZNK9__gnu_cxx13new_allocatorISt13_Rb_tree_nodeISt4pairIKjP6BBInfoEEE8max_sizeEv>:
   0:	b480      	push	{r7}
   2:	b083      	sub	sp, #12
   4:	af00      	add	r7, sp, #0
   6:	6078      	str	r0, [r7, #4]
   8:	4b03      	ldr	r3, [pc, #12]	; (18 <_ZNK9__gnu_cxx13new_allocatorISt13_Rb_tree_nodeISt4pairIKjP6BBInfoEEE8max_sizeEv+0x18>)
   a:	4618      	mov	r0, r3
   c:	370c      	adds	r7, #12
   e:	46bd      	mov	sp, r7
  10:	f85d 7b04 	ldr.w	r7, [sp], #4
  14:	4770      	bx	lr
  16:	bf00      	nop
  18:	0aaaaaaa 	.word	0x0aaaaaaa

Disassembly of section .text._ZNSt10_Iter_baseIPPjLb0EE7_S_baseES1_:

00000000 <_ZNSt10_Iter_baseIPPjLb0EE7_S_baseES1_>:
   0:	b480      	push	{r7}
   2:	b083      	sub	sp, #12
   4:	af00      	add	r7, sp, #0
   6:	6078      	str	r0, [r7, #4]
   8:	687b      	ldr	r3, [r7, #4]
   a:	4618      	mov	r0, r3
   c:	370c      	adds	r7, #12
   e:	46bd      	mov	sp, r7
  10:	f85d 7b04 	ldr.w	r7, [sp], #4
  14:	4770      	bx	lr
  16:	bf00      	nop

Disassembly of section .text._ZSt12__niter_baseIPPjENSt11_Niter_baseIT_E13iterator_typeES3_:

00000000 <_ZSt12__niter_baseIPPjENSt11_Niter_baseIT_E13iterator_typeES3_>:
   0:	b580      	push	{r7, lr}
   2:	b082      	sub	sp, #8
   4:	af00      	add	r7, sp, #0
   6:	6078      	str	r0, [r7, #4]
   8:	6878      	ldr	r0, [r7, #4]
   a:	f7ff fffe 	bl	0 <_ZSt12__niter_baseIPPjENSt11_Niter_baseIT_E13iterator_typeES3_>
   e:	4603      	mov	r3, r0
  10:	4618      	mov	r0, r3
  12:	3708      	adds	r7, #8
  14:	46bd      	mov	sp, r7
  16:	bd80      	pop	{r7, pc}

Disassembly of section .text._ZSt13__copy_move_aILb0EPPjS1_ET1_T0_S3_S2_:

00000000 <_ZSt13__copy_move_aILb0EPPjS1_ET1_T0_S3_S2_>:
   0:	b580      	push	{r7, lr}
   2:	b086      	sub	sp, #24
   4:	af00      	add	r7, sp, #0
   6:	60f8      	str	r0, [r7, #12]
   8:	60b9      	str	r1, [r7, #8]
   a:	607a      	str	r2, [r7, #4]
   c:	2301      	movs	r3, #1
   e:	75fb      	strb	r3, [r7, #23]
  10:	68f8      	ldr	r0, [r7, #12]
  12:	68b9      	ldr	r1, [r7, #8]
  14:	687a      	ldr	r2, [r7, #4]
  16:	f7ff fffe 	bl	0 <_ZSt13__copy_move_aILb0EPPjS1_ET1_T0_S3_S2_>
  1a:	4603      	mov	r3, r0
  1c:	4618      	mov	r0, r3
  1e:	3718      	adds	r7, #24
  20:	46bd      	mov	sp, r7
  22:	bd80      	pop	{r7, pc}

Disassembly of section .text._ZSt22__copy_move_backward_aILb0EPPjS1_ET1_T0_S3_S2_:

00000000 <_ZSt22__copy_move_backward_aILb0EPPjS1_ET1_T0_S3_S2_>:
   0:	b580      	push	{r7, lr}
   2:	b086      	sub	sp, #24
   4:	af00      	add	r7, sp, #0
   6:	60f8      	str	r0, [r7, #12]
   8:	60b9      	str	r1, [r7, #8]
   a:	607a      	str	r2, [r7, #4]
   c:	2301      	movs	r3, #1
   e:	75fb      	strb	r3, [r7, #23]
  10:	68f8      	ldr	r0, [r7, #12]
  12:	68b9      	ldr	r1, [r7, #8]
  14:	687a      	ldr	r2, [r7, #4]
  16:	f7ff fffe 	bl	0 <_ZSt22__copy_move_backward_aILb0EPPjS1_ET1_T0_S3_S2_>
  1a:	4603      	mov	r3, r0
  1c:	4618      	mov	r0, r3
  1e:	3718      	adds	r7, #24
  20:	46bd      	mov	sp, r7
  22:	bd80      	pop	{r7, pc}

Disassembly of section .text._ZNSt10_Iter_baseISt15_Deque_iteratorIjRjPjELb0EE7_S_baseES3_:

00000000 <_ZNSt10_Iter_baseISt15_Deque_iteratorIjRjPjELb0EE7_S_baseES3_>:
   0:	b580      	push	{r7, lr}
   2:	b082      	sub	sp, #8
   4:	af00      	add	r7, sp, #0
   6:	6078      	str	r0, [r7, #4]
   8:	6039      	str	r1, [r7, #0]
   a:	6878      	ldr	r0, [r7, #4]
   c:	6839      	ldr	r1, [r7, #0]
   e:	f7ff fffe 	bl	0 <_ZNSt10_Iter_baseISt15_Deque_iteratorIjRjPjELb0EE7_S_baseES3_>
  12:	6878      	ldr	r0, [r7, #4]
  14:	3708      	adds	r7, #8
  16:	46bd      	mov	sp, r7
  18:	bd80      	pop	{r7, pc}
  1a:	bf00      	nop

Disassembly of section .text._ZNSt11__copy_moveILb0ELb0ESt26random_access_iterator_tagE8__copy_mISt15_Deque_iteratorIjRKjPS4_ES3_IjRjPjEEET0_T_SC_SB_:

00000000 <_ZNSt11__copy_moveILb0ELb0ESt26random_access_iterator_tagE8__copy_mISt15_Deque_iteratorIjRKjPS4_ES3_IjRjPjEEET0_T_SC_SB_>:
   0:	b084      	sub	sp, #16
   2:	b590      	push	{r4, r7, lr}
   4:	b085      	sub	sp, #20
   6:	af00      	add	r7, sp, #0
   8:	6078      	str	r0, [r7, #4]
   a:	f107 0024 	add.w	r0, r7, #36	; 0x24
   e:	e880 000e 	stmia.w	r0, {r1, r2, r3}
  12:	f107 0234 	add.w	r2, r7, #52	; 0x34
  16:	f107 0324 	add.w	r3, r7, #36	; 0x24
  1a:	4610      	mov	r0, r2
  1c:	4619      	mov	r1, r3
  1e:	f7ff fffe 	bl	0 <_ZNSt11__copy_moveILb0ELb0ESt26random_access_iterator_tagE8__copy_mISt15_Deque_iteratorIjRKjPS4_ES3_IjRjPjEEET0_T_SC_SB_>
  22:	4603      	mov	r3, r0
  24:	60fb      	str	r3, [r7, #12]
  26:	e016      	b.n	56 <_ZNSt11__copy_moveILb0ELb0ESt26random_access_iterator_tagE8__copy_mISt15_Deque_iteratorIjRKjPS4_ES3_IjRjPjEEET0_T_SC_SB_+0x56>
  28:	6c78      	ldr	r0, [r7, #68]	; 0x44
  2a:	f7ff fffe 	bl	0 <_ZNSt11__copy_moveILb0ELb0ESt26random_access_iterator_tagE8__copy_mISt15_Deque_iteratorIjRKjPS4_ES3_IjRjPjEEET0_T_SC_SB_>
  2e:	4604      	mov	r4, r0
  30:	f107 0324 	add.w	r3, r7, #36	; 0x24
  34:	4618      	mov	r0, r3
  36:	f7ff fffe 	bl	0 <_ZNSt11__copy_moveILb0ELb0ESt26random_access_iterator_tagE8__copy_mISt15_Deque_iteratorIjRKjPS4_ES3_IjRjPjEEET0_T_SC_SB_>
  3a:	4603      	mov	r3, r0
  3c:	681b      	ldr	r3, [r3, #0]
  3e:	6023      	str	r3, [r4, #0]
  40:	f107 0324 	add.w	r3, r7, #36	; 0x24
  44:	4618      	mov	r0, r3
  46:	f7ff fffe 	bl	0 <_ZNSt11__copy_moveILb0ELb0ESt26random_access_iterator_tagE8__copy_mISt15_Deque_iteratorIjRKjPS4_ES3_IjRjPjEEET0_T_SC_SB_>
  4a:	6c78      	ldr	r0, [r7, #68]	; 0x44
  4c:	f7ff fffe 	bl	0 <_ZNSt11__copy_moveILb0ELb0ESt26random_access_iterator_tagE8__copy_mISt15_Deque_iteratorIjRKjPS4_ES3_IjRjPjEEET0_T_SC_SB_>
  50:	68fb      	ldr	r3, [r7, #12]
  52:	3b01      	subs	r3, #1
  54:	60fb      	str	r3, [r7, #12]
  56:	68fb      	ldr	r3, [r7, #12]
  58:	2b00      	cmp	r3, #0
  5a:	dce5      	bgt.n	28 <_ZNSt11__copy_moveILb0ELb0ESt26random_access_iterator_tagE8__copy_mISt15_Deque_iteratorIjRKjPS4_ES3_IjRjPjEEET0_T_SC_SB_+0x28>
  5c:	6878      	ldr	r0, [r7, #4]
  5e:	6c79      	ldr	r1, [r7, #68]	; 0x44
  60:	f7ff fffe 	bl	0 <_ZNSt11__copy_moveILb0ELb0ESt26random_access_iterator_tagE8__copy_mISt15_Deque_iteratorIjRKjPS4_ES3_IjRjPjEEET0_T_SC_SB_>
  64:	6878      	ldr	r0, [r7, #4]
  66:	3714      	adds	r7, #20
  68:	46bd      	mov	sp, r7
  6a:	e8bd 4090 	ldmia.w	sp!, {r4, r7, lr}
  6e:	b004      	add	sp, #16
  70:	4770      	bx	lr
  72:	bf00      	nop

Disassembly of section .text._ZNSt11__copy_moveILb0ELb1ESt26random_access_iterator_tagE8__copy_mIPjEEPT_PKS4_S7_S5_:

00000000 <_ZNSt11__copy_moveILb0ELb1ESt26random_access_iterator_tagE8__copy_mIPjEEPT_PKS4_S7_S5_>:
   0:	b580      	push	{r7, lr}
   2:	b086      	sub	sp, #24
   4:	af00      	add	r7, sp, #0
   6:	60f8      	str	r0, [r7, #12]
   8:	60b9      	str	r1, [r7, #8]
   a:	607a      	str	r2, [r7, #4]
   c:	68ba      	ldr	r2, [r7, #8]
   e:	68fb      	ldr	r3, [r7, #12]
  10:	1ad3      	subs	r3, r2, r3
  12:	109b      	asrs	r3, r3, #2
  14:	617b      	str	r3, [r7, #20]
  16:	697b      	ldr	r3, [r7, #20]
  18:	2b00      	cmp	r3, #0
  1a:	d006      	beq.n	2a <_ZNSt11__copy_moveILb0ELb1ESt26random_access_iterator_tagE8__copy_mIPjEEPT_PKS4_S7_S5_+0x2a>
  1c:	697b      	ldr	r3, [r7, #20]
  1e:	009b      	lsls	r3, r3, #2
  20:	6878      	ldr	r0, [r7, #4]
  22:	68f9      	ldr	r1, [r7, #12]
  24:	461a      	mov	r2, r3
  26:	f7ff fffe 	bl	0 <memmove>
  2a:	697b      	ldr	r3, [r7, #20]
  2c:	009b      	lsls	r3, r3, #2
  2e:	687a      	ldr	r2, [r7, #4]
  30:	4413      	add	r3, r2
  32:	4618      	mov	r0, r3
  34:	3718      	adds	r7, #24
  36:	46bd      	mov	sp, r7
  38:	bd80      	pop	{r7, pc}
  3a:	bf00      	nop

Disassembly of section .text._ZNSt20__copy_move_backwardILb0ELb1ESt26random_access_iterator_tagE13__copy_move_bIPjEEPT_PKS4_S7_S5_:

00000000 <_ZNSt20__copy_move_backwardILb0ELb1ESt26random_access_iterator_tagE13__copy_move_bIPjEEPT_PKS4_S7_S5_>:
   0:	b580      	push	{r7, lr}
   2:	b086      	sub	sp, #24
   4:	af00      	add	r7, sp, #0
   6:	60f8      	str	r0, [r7, #12]
   8:	60b9      	str	r1, [r7, #8]
   a:	607a      	str	r2, [r7, #4]
   c:	68ba      	ldr	r2, [r7, #8]
   e:	68fb      	ldr	r3, [r7, #12]
  10:	1ad3      	subs	r3, r2, r3
  12:	109b      	asrs	r3, r3, #2
  14:	617b      	str	r3, [r7, #20]
  16:	697b      	ldr	r3, [r7, #20]
  18:	2b00      	cmp	r3, #0
  1a:	d00b      	beq.n	34 <_ZNSt20__copy_move_backwardILb0ELb1ESt26random_access_iterator_tagE13__copy_move_bIPjEEPT_PKS4_S7_S5_+0x34>
  1c:	697b      	ldr	r3, [r7, #20]
  1e:	009b      	lsls	r3, r3, #2
  20:	425b      	negs	r3, r3
  22:	687a      	ldr	r2, [r7, #4]
  24:	441a      	add	r2, r3
  26:	697b      	ldr	r3, [r7, #20]
  28:	009b      	lsls	r3, r3, #2
  2a:	4610      	mov	r0, r2
  2c:	68f9      	ldr	r1, [r7, #12]
  2e:	461a      	mov	r2, r3
  30:	f7ff fffe 	bl	0 <memmove>
  34:	697b      	ldr	r3, [r7, #20]
  36:	009b      	lsls	r3, r3, #2
  38:	425b      	negs	r3, r3
  3a:	687a      	ldr	r2, [r7, #4]
  3c:	4413      	add	r3, r2
  3e:	4618      	mov	r0, r3
  40:	3718      	adds	r7, #24
  42:	46bd      	mov	sp, r7
  44:	bd80      	pop	{r7, pc}
  46:	bf00      	nop

Disassembly of section .text._ZStmiIjRKjPS0_ENSt15_Deque_iteratorIT_T0_T1_E15difference_typeERKS7_SA_:

00000000 <_ZStmiIjRKjPS0_ENSt15_Deque_iteratorIT_T0_T1_E15difference_typeERKS7_SA_>:
   0:	b580      	push	{r7, lr}
   2:	b082      	sub	sp, #8
   4:	af00      	add	r7, sp, #0
   6:	6078      	str	r0, [r7, #4]
   8:	6039      	str	r1, [r7, #0]
   a:	f7ff fffe 	bl	0 <_ZStmiIjRKjPS0_ENSt15_Deque_iteratorIT_T0_T1_E15difference_typeERKS7_SA_>
   e:	4603      	mov	r3, r0
  10:	461a      	mov	r2, r3
  12:	687b      	ldr	r3, [r7, #4]
  14:	68db      	ldr	r3, [r3, #12]
  16:	4619      	mov	r1, r3
  18:	683b      	ldr	r3, [r7, #0]
  1a:	68db      	ldr	r3, [r3, #12]
  1c:	1acb      	subs	r3, r1, r3
  1e:	109b      	asrs	r3, r3, #2
  20:	3b01      	subs	r3, #1
  22:	fb03 f302 	mul.w	r3, r3, r2
  26:	687a      	ldr	r2, [r7, #4]
  28:	6812      	ldr	r2, [r2, #0]
  2a:	4611      	mov	r1, r2
  2c:	687a      	ldr	r2, [r7, #4]
  2e:	6852      	ldr	r2, [r2, #4]
  30:	1a8a      	subs	r2, r1, r2
  32:	1092      	asrs	r2, r2, #2
  34:	4413      	add	r3, r2
  36:	683a      	ldr	r2, [r7, #0]
  38:	6892      	ldr	r2, [r2, #8]
  3a:	4611      	mov	r1, r2
  3c:	683a      	ldr	r2, [r7, #0]
  3e:	6812      	ldr	r2, [r2, #0]
  40:	1a8a      	subs	r2, r1, r2
  42:	1092      	asrs	r2, r2, #2
  44:	4413      	add	r3, r2
  46:	4618      	mov	r0, r3
  48:	3708      	adds	r7, #8
  4a:	46bd      	mov	sp, r7
  4c:	bd80      	pop	{r7, pc}
  4e:	bf00      	nop

Disassembly of section .text._ZNKSt15_Deque_iteratorIjRKjPS0_EdeEv:

00000000 <_ZNKSt15_Deque_iteratorIjRKjPS0_EdeEv>:
   0:	b480      	push	{r7}
   2:	b083      	sub	sp, #12
   4:	af00      	add	r7, sp, #0
   6:	6078      	str	r0, [r7, #4]
   8:	687b      	ldr	r3, [r7, #4]
   a:	681b      	ldr	r3, [r3, #0]
   c:	4618      	mov	r0, r3
   e:	370c      	adds	r7, #12
  10:	46bd      	mov	sp, r7
  12:	f85d 7b04 	ldr.w	r7, [sp], #4
  16:	4770      	bx	lr

Disassembly of section .text._ZNSt15_Deque_iteratorIjRKjPS0_EppEv:

00000000 <_ZNSt15_Deque_iteratorIjRKjPS0_EppEv>:
   0:	b580      	push	{r7, lr}
   2:	b082      	sub	sp, #8
   4:	af00      	add	r7, sp, #0
   6:	6078      	str	r0, [r7, #4]
   8:	687b      	ldr	r3, [r7, #4]
   a:	681b      	ldr	r3, [r3, #0]
   c:	1d1a      	adds	r2, r3, #4
   e:	687b      	ldr	r3, [r7, #4]
  10:	601a      	str	r2, [r3, #0]
  12:	687b      	ldr	r3, [r7, #4]
  14:	681a      	ldr	r2, [r3, #0]
  16:	687b      	ldr	r3, [r7, #4]
  18:	689b      	ldr	r3, [r3, #8]
  1a:	429a      	cmp	r2, r3
  1c:	d10a      	bne.n	34 <_ZNSt15_Deque_iteratorIjRKjPS0_EppEv+0x34>
  1e:	687b      	ldr	r3, [r7, #4]
  20:	68db      	ldr	r3, [r3, #12]
  22:	3304      	adds	r3, #4
  24:	6878      	ldr	r0, [r7, #4]
  26:	4619      	mov	r1, r3
  28:	f7ff fffe 	bl	0 <_ZNSt15_Deque_iteratorIjRKjPS0_EppEv>
  2c:	687b      	ldr	r3, [r7, #4]
  2e:	685a      	ldr	r2, [r3, #4]
  30:	687b      	ldr	r3, [r7, #4]
  32:	601a      	str	r2, [r3, #0]
  34:	687b      	ldr	r3, [r7, #4]
  36:	4618      	mov	r0, r3
  38:	3708      	adds	r7, #8
  3a:	46bd      	mov	sp, r7
  3c:	bd80      	pop	{r7, pc}
  3e:	bf00      	nop

Disassembly of section .text._ZNSt15_Deque_iteratorIjRjPjEppEv:

00000000 <_ZNSt15_Deque_iteratorIjRjPjEppEv>:
   0:	b580      	push	{r7, lr}
   2:	b082      	sub	sp, #8
   4:	af00      	add	r7, sp, #0
   6:	6078      	str	r0, [r7, #4]
   8:	687b      	ldr	r3, [r7, #4]
   a:	681b      	ldr	r3, [r3, #0]
   c:	1d1a      	adds	r2, r3, #4
   e:	687b      	ldr	r3, [r7, #4]
  10:	601a      	str	r2, [r3, #0]
  12:	687b      	ldr	r3, [r7, #4]
  14:	681a      	ldr	r2, [r3, #0]
  16:	687b      	ldr	r3, [r7, #4]
  18:	689b      	ldr	r3, [r3, #8]
  1a:	429a      	cmp	r2, r3
  1c:	d10a      	bne.n	34 <_ZNSt15_Deque_iteratorIjRjPjEppEv+0x34>
  1e:	687b      	ldr	r3, [r7, #4]
  20:	68db      	ldr	r3, [r3, #12]
  22:	3304      	adds	r3, #4
  24:	6878      	ldr	r0, [r7, #4]
  26:	4619      	mov	r1, r3
  28:	f7ff fffe 	bl	0 <_ZNSt15_Deque_iteratorIjRjPjEppEv>
  2c:	687b      	ldr	r3, [r7, #4]
  2e:	685a      	ldr	r2, [r3, #4]
  30:	687b      	ldr	r3, [r7, #4]
  32:	601a      	str	r2, [r3, #0]
  34:	687b      	ldr	r3, [r7, #4]
  36:	4618      	mov	r0, r3
  38:	3708      	adds	r7, #8
  3a:	46bd      	mov	sp, r7
  3c:	bd80      	pop	{r7, pc}
  3e:	bf00      	nop

Disassembly of section .text._ZNSt15_Deque_iteratorIjRKjPS0_E14_S_buffer_sizeEv:

00000000 <_ZNSt15_Deque_iteratorIjRKjPS0_E14_S_buffer_sizeEv>:
   0:	b580      	push	{r7, lr}
   2:	af00      	add	r7, sp, #0
   4:	2004      	movs	r0, #4
   6:	f7ff fffe 	bl	0 <_ZNSt15_Deque_iteratorIjRKjPS0_E14_S_buffer_sizeEv>
   a:	4603      	mov	r3, r0
   c:	4618      	mov	r0, r3
   e:	bd80      	pop	{r7, pc}

Disassembly of section .text._ZNSt15_Deque_iteratorIjRKjPS0_E11_M_set_nodeEPPj:

00000000 <_ZNSt15_Deque_iteratorIjRKjPS0_E11_M_set_nodeEPPj>:
   0:	b590      	push	{r4, r7, lr}
   2:	b083      	sub	sp, #12
   4:	af00      	add	r7, sp, #0
   6:	6078      	str	r0, [r7, #4]
   8:	6039      	str	r1, [r7, #0]
   a:	687b      	ldr	r3, [r7, #4]
   c:	683a      	ldr	r2, [r7, #0]
   e:	60da      	str	r2, [r3, #12]
  10:	683b      	ldr	r3, [r7, #0]
  12:	681a      	ldr	r2, [r3, #0]
  14:	687b      	ldr	r3, [r7, #4]
  16:	605a      	str	r2, [r3, #4]
  18:	687b      	ldr	r3, [r7, #4]
  1a:	685c      	ldr	r4, [r3, #4]
  1c:	f7ff fffe 	bl	0 <_ZNSt15_Deque_iteratorIjRKjPS0_E11_M_set_nodeEPPj>
  20:	4603      	mov	r3, r0
  22:	009b      	lsls	r3, r3, #2
  24:	18e2      	adds	r2, r4, r3
  26:	687b      	ldr	r3, [r7, #4]
  28:	609a      	str	r2, [r3, #8]
  2a:	370c      	adds	r7, #12
  2c:	46bd      	mov	sp, r7
  2e:	bd90      	pop	{r4, r7, pc}

checker_initializer.o:     file format elf32-littlearm


Disassembly of section .text:

00000000 <_ZL20__gthread_key_deletei>:
   0:	b480      	push	{r7}
   2:	b083      	sub	sp, #12
   4:	af00      	add	r7, sp, #0
   6:	6078      	str	r0, [r7, #4]
   8:	2300      	movs	r3, #0
   a:	4618      	mov	r0, r3
   c:	370c      	adds	r7, #12
   e:	46bd      	mov	sp, r7
  10:	f85d 7b04 	ldr.w	r7, [sp], #4
  14:	4770      	bx	lr
  16:	bf00      	nop

00000018 <checker_initializer>:
  18:	b580      	push	{r7, lr}
  1a:	b084      	sub	sp, #16
  1c:	af02      	add	r7, sp, #8
  1e:	6078      	str	r0, [r7, #4]
  20:	4b2f      	ldr	r3, [pc, #188]	; (e0 <checker_initializer+0xc8>)
  22:	781b      	ldrb	r3, [r3, #0]
  24:	f083 0301 	eor.w	r3, r3, #1
  28:	b2db      	uxtb	r3, r3
  2a:	2b00      	cmp	r3, #0
  2c:	d000      	beq.n	30 <checker_initializer+0x18>
  2e:	e054      	b.n	da <checker_initializer+0xc2>
  30:	4b2b      	ldr	r3, [pc, #172]	; (e0 <checker_initializer+0xc8>)
  32:	2200      	movs	r2, #0
  34:	701a      	strb	r2, [r3, #0]
  36:	f7ff fffe 	bl	0 <_Z27generate_return_point_stackv>
  3a:	f7ff fffe 	bl	fc <_Z18generate_path_treev>
  3e:	4602      	mov	r2, r0
  40:	4b28      	ldr	r3, [pc, #160]	; (e4 <checker_initializer+0xcc>)
  42:	601a      	str	r2, [r3, #0]
  44:	4b27      	ldr	r3, [pc, #156]	; (e4 <checker_initializer+0xcc>)
  46:	681a      	ldr	r2, [r3, #0]
  48:	4b27      	ldr	r3, [pc, #156]	; (e8 <checker_initializer+0xd0>)
  4a:	9300      	str	r3, [sp, #0]
  4c:	4610      	mov	r0, r2
  4e:	f04f 1101 	mov.w	r1, #65537	; 0x10001
  52:	2202      	movs	r2, #2
  54:	4b25      	ldr	r3, [pc, #148]	; (ec <checker_initializer+0xd4>)
  56:	f7ff fffe 	bl	0 <_Z14add_basicblockPSt3mapIjP6BBInfoSt4lessIjESaISt4pairIKjS1_EEEjjjj>
  5a:	4b22      	ldr	r3, [pc, #136]	; (e4 <checker_initializer+0xcc>)
  5c:	681a      	ldr	r2, [r3, #0]
  5e:	2300      	movs	r3, #0
  60:	9300      	str	r3, [sp, #0]
  62:	4610      	mov	r0, r2
  64:	4921      	ldr	r1, [pc, #132]	; (ec <checker_initializer+0xd4>)
  66:	2201      	movs	r2, #1
  68:	4b21      	ldr	r3, [pc, #132]	; (f0 <checker_initializer+0xd8>)
  6a:	f7ff fffe 	bl	0 <_Z14add_basicblockPSt3mapIjP6BBInfoSt4lessIjESaISt4pairIKjS1_EEEjjjj>
  6e:	4b1d      	ldr	r3, [pc, #116]	; (e4 <checker_initializer+0xcc>)
  70:	681a      	ldr	r2, [r3, #0]
  72:	2300      	movs	r3, #0
  74:	9300      	str	r3, [sp, #0]
  76:	4610      	mov	r0, r2
  78:	491b      	ldr	r1, [pc, #108]	; (e8 <checker_initializer+0xd0>)
  7a:	2201      	movs	r2, #1
  7c:	4b1c      	ldr	r3, [pc, #112]	; (f0 <checker_initializer+0xd8>)
  7e:	f7ff fffe 	bl	0 <_Z14add_basicblockPSt3mapIjP6BBInfoSt4lessIjESaISt4pairIKjS1_EEEjjjj>
  82:	4b18      	ldr	r3, [pc, #96]	; (e4 <checker_initializer+0xcc>)
  84:	681a      	ldr	r2, [r3, #0]
  86:	2300      	movs	r3, #0
  88:	9300      	str	r3, [sp, #0]
  8a:	4610      	mov	r0, r2
  8c:	4918      	ldr	r1, [pc, #96]	; (f0 <checker_initializer+0xd8>)
  8e:	2200      	movs	r2, #0
  90:	2300      	movs	r3, #0
  92:	f7ff fffe 	bl	0 <_Z14add_basicblockPSt3mapIjP6BBInfoSt4lessIjESaISt4pairIKjS1_EEEjjjj>
  96:	4b13      	ldr	r3, [pc, #76]	; (e4 <checker_initializer+0xcc>)
  98:	681a      	ldr	r2, [r3, #0]
  9a:	4b16      	ldr	r3, [pc, #88]	; (f4 <checker_initializer+0xdc>)
  9c:	9300      	str	r3, [sp, #0]
  9e:	4610      	mov	r0, r2
  a0:	4915      	ldr	r1, [pc, #84]	; (f8 <checker_initializer+0xe0>)
  a2:	2202      	movs	r2, #2
  a4:	f04f 1302 	mov.w	r3, #131074	; 0x20002
  a8:	f7ff fffe 	bl	0 <_Z14add_basicblockPSt3mapIjP6BBInfoSt4lessIjESaISt4pairIKjS1_EEEjjjj>
  ac:	4b0d      	ldr	r3, [pc, #52]	; (e4 <checker_initializer+0xcc>)
  ae:	681a      	ldr	r2, [r3, #0]
  b0:	4b10      	ldr	r3, [pc, #64]	; (f4 <checker_initializer+0xdc>)
  b2:	9300      	str	r3, [sp, #0]
  b4:	4610      	mov	r0, r2
  b6:	f04f 1102 	mov.w	r1, #131074	; 0x20002
  ba:	2203      	movs	r2, #3
  bc:	f04f 1301 	mov.w	r3, #65537	; 0x10001
  c0:	f7ff fffe 	bl	0 <_Z14add_basicblockPSt3mapIjP6BBInfoSt4lessIjESaISt4pairIKjS1_EEEjjjj>
  c4:	4b07      	ldr	r3, [pc, #28]	; (e4 <checker_initializer+0xcc>)
  c6:	681a      	ldr	r2, [r3, #0]
  c8:	2300      	movs	r3, #0
  ca:	9300      	str	r3, [sp, #0]
  cc:	4610      	mov	r0, r2
  ce:	4909      	ldr	r1, [pc, #36]	; (f4 <checker_initializer+0xdc>)
  d0:	2204      	movs	r2, #4
  d2:	2300      	movs	r3, #0
  d4:	f7ff fffe 	bl	0 <_Z14add_basicblockPSt3mapIjP6BBInfoSt4lessIjESaISt4pairIKjS1_EEEjjjj>
  d8:	bf00      	nop
  da:	3708      	adds	r7, #8
  dc:	46bd      	mov	sp, r7
  de:	bd80      	pop	{r7, pc}
	...
  e8:	00010003 	.word	0x00010003
  ec:	00010002 	.word	0x00010002
  f0:	00010004 	.word	0x00010004
  f4:	00020003 	.word	0x00020003
  f8:	00020001 	.word	0x00020001

000000fc <_Z18generate_path_treev>:
  fc:	b590      	push	{r4, r7, lr}
  fe:	b08b      	sub	sp, #44	; 0x2c
 100:	af02      	add	r7, sp, #8
 102:	2018      	movs	r0, #24
 104:	f7ff fffe 	bl	0 <_Znwj>
 108:	4604      	mov	r4, r0
 10a:	4620      	mov	r0, r4
 10c:	f7ff fffe 	bl	0 <_ZL20__gthread_key_deletei>
 110:	61fc      	str	r4, [r7, #28]
 112:	2010      	movs	r0, #16
 114:	f7ff fffe 	bl	0 <_Znwj>
 118:	4604      	mov	r4, r0
 11a:	2300      	movs	r3, #0
 11c:	9300      	str	r3, [sp, #0]
 11e:	4620      	mov	r0, r4
 120:	2101      	movs	r1, #1
 122:	2201      	movs	r2, #1
 124:	4b12      	ldr	r3, [pc, #72]	; (170 <_Z18generate_path_treev+0x74>)
 126:	f7ff fffe 	bl	0 <_ZL20__gthread_key_deletei>
 12a:	61bc      	str	r4, [r7, #24]
 12c:	f107 0310 	add.w	r3, r7, #16
 130:	4618      	mov	r0, r3
 132:	2101      	movs	r1, #1
 134:	69ba      	ldr	r2, [r7, #24]
 136:	f7ff fffe 	bl	0 <_ZL20__gthread_key_deletei>
 13a:	f107 0208 	add.w	r2, r7, #8
 13e:	f107 0310 	add.w	r3, r7, #16
 142:	4610      	mov	r0, r2
 144:	4619      	mov	r1, r3
 146:	f7ff fffe 	bl	0 <_ZL20__gthread_key_deletei>
 14a:	463a      	mov	r2, r7
 14c:	f107 0308 	add.w	r3, r7, #8
 150:	4610      	mov	r0, r2
 152:	69f9      	ldr	r1, [r7, #28]
 154:	461a      	mov	r2, r3
 156:	f7ff fffe 	bl	0 <_ZL20__gthread_key_deletei>
 15a:	69fb      	ldr	r3, [r7, #28]
 15c:	e004      	b.n	168 <_Z18generate_path_treev+0x6c>
 15e:	4620      	mov	r0, r4
 160:	f7ff fffe 	bl	0 <_ZdlPv>
 164:	f7ff fffe 	bl	0 <__cxa_end_cleanup>
 168:	4618      	mov	r0, r3
 16a:	3724      	adds	r7, #36	; 0x24
 16c:	46bd      	mov	sp, r7
 16e:	bd90      	pop	{r4, r7, pc}
 170:	00020001 	.word	0x00020001

00000174 <_Z41__static_initialization_and_destruction_0ii>:
 174:	b580      	push	{r7, lr}
 176:	b082      	sub	sp, #8
 178:	af00      	add	r7, sp, #0
 17a:	6078      	str	r0, [r7, #4]
 17c:	6039      	str	r1, [r7, #0]
 17e:	687b      	ldr	r3, [r7, #4]
 180:	2b01      	cmp	r3, #1
 182:	d10c      	bne.n	19e <_Z41__static_initialization_and_destruction_0ii+0x2a>
 184:	683b      	ldr	r3, [r7, #0]
 186:	f64f 72ff 	movw	r2, #65535	; 0xffff
 18a:	4293      	cmp	r3, r2
 18c:	d107      	bne.n	19e <_Z41__static_initialization_and_destruction_0ii+0x2a>
 18e:	4805      	ldr	r0, [pc, #20]	; (1a4 <_Z41__static_initialization_and_destruction_0ii+0x30>)
 190:	f7ff fffe 	bl	0 <_ZNSt8ios_base4InitC1Ev>
 194:	4803      	ldr	r0, [pc, #12]	; (1a4 <_Z41__static_initialization_and_destruction_0ii+0x30>)
 196:	4904      	ldr	r1, [pc, #16]	; (1a8 <_Z41__static_initialization_and_destruction_0ii+0x34>)
 198:	4a04      	ldr	r2, [pc, #16]	; (1ac <_Z41__static_initialization_and_destruction_0ii+0x38>)
 19a:	f7ff fffe 	bl	0 <__aeabi_atexit>
 19e:	3708      	adds	r7, #8
 1a0:	46bd      	mov	sp, r7
 1a2:	bd80      	pop	{r7, pc}
	...

000001b0 <_GLOBAL__sub_I_checker_initializer>:
 1b0:	b580      	push	{r7, lr}
 1b2:	af00      	add	r7, sp, #0
 1b4:	2001      	movs	r0, #1
 1b6:	f64f 71ff 	movw	r1, #65535	; 0xffff
 1ba:	f7ff ffdb 	bl	174 <_Z41__static_initialization_and_destruction_0ii>
 1be:	bd80      	pop	{r7, pc}

Disassembly of section .text._ZnwjPv:

00000000 <_ZnwjPv>:
   0:	b480      	push	{r7}
   2:	b083      	sub	sp, #12
   4:	af00      	add	r7, sp, #0
   6:	6078      	str	r0, [r7, #4]
   8:	6039      	str	r1, [r7, #0]
   a:	683b      	ldr	r3, [r7, #0]
   c:	4618      	mov	r0, r3
   e:	370c      	adds	r7, #12
  10:	46bd      	mov	sp, r7
  12:	f85d 7b04 	ldr.w	r7, [sp], #4
  16:	4770      	bx	lr

Disassembly of section .text._ZN6BBInfoC2Ejjjj:

00000000 <_ZN6BBInfoC1Ejjjj>:
   0:	b480      	push	{r7}
   2:	b085      	sub	sp, #20
   4:	af00      	add	r7, sp, #0
   6:	60f8      	str	r0, [r7, #12]
   8:	60b9      	str	r1, [r7, #8]
   a:	607a      	str	r2, [r7, #4]
   c:	603b      	str	r3, [r7, #0]
   e:	68fb      	ldr	r3, [r7, #12]
  10:	68ba      	ldr	r2, [r7, #8]
  12:	601a      	str	r2, [r3, #0]
  14:	68fb      	ldr	r3, [r7, #12]
  16:	687a      	ldr	r2, [r7, #4]
  18:	605a      	str	r2, [r3, #4]
  1a:	68fb      	ldr	r3, [r7, #12]
  1c:	683a      	ldr	r2, [r7, #0]
  1e:	609a      	str	r2, [r3, #8]
  20:	68fb      	ldr	r3, [r7, #12]
  22:	69ba      	ldr	r2, [r7, #24]
  24:	60da      	str	r2, [r3, #12]
  26:	68fb      	ldr	r3, [r7, #12]
  28:	4618      	mov	r0, r3
  2a:	3714      	adds	r7, #20
  2c:	46bd      	mov	sp, r7
  2e:	f85d 7b04 	ldr.w	r7, [sp], #4
  32:	4770      	bx	lr

Disassembly of section .text._ZNSt3mapIjP6BBInfoSt4lessIjESaISt4pairIKjS1_EEEC2Ev:

00000000 <_ZNSt3mapIjP6BBInfoSt4lessIjESaISt4pairIKjS1_EEEC1Ev>:
   0:	b580      	push	{r7, lr}
   2:	b082      	sub	sp, #8
   4:	af00      	add	r7, sp, #0
   6:	6078      	str	r0, [r7, #4]
   8:	687b      	ldr	r3, [r7, #4]
   a:	4618      	mov	r0, r3
   c:	f7ff fffe 	bl	0 <_ZNSt3mapIjP6BBInfoSt4lessIjESaISt4pairIKjS1_EEEC1Ev>
  10:	687b      	ldr	r3, [r7, #4]
  12:	4618      	mov	r0, r3
  14:	3708      	adds	r7, #8
  16:	46bd      	mov	sp, r7
  18:	bd80      	pop	{r7, pc}
  1a:	bf00      	nop

Disassembly of section .text._ZSt9make_pairIiP6BBInfoESt4pairIT_T0_ES3_S4_:

00000000 <_ZSt9make_pairIiP6BBInfoESt4pairIT_T0_ES3_S4_>:
   0:	b580      	push	{r7, lr}
   2:	b084      	sub	sp, #16
   4:	af00      	add	r7, sp, #0
   6:	60f8      	str	r0, [r7, #12]
   8:	60b9      	str	r1, [r7, #8]
   a:	607a      	str	r2, [r7, #4]
   c:	f107 0208 	add.w	r2, r7, #8
  10:	1d3b      	adds	r3, r7, #4
  12:	68f8      	ldr	r0, [r7, #12]
  14:	4611      	mov	r1, r2
  16:	461a      	mov	r2, r3
  18:	f7ff fffe 	bl	0 <_ZSt9make_pairIiP6BBInfoESt4pairIT_T0_ES3_S4_>
  1c:	68f8      	ldr	r0, [r7, #12]
  1e:	3710      	adds	r7, #16
  20:	46bd      	mov	sp, r7
  22:	bd80      	pop	{r7, pc}

Disassembly of section .text._ZNSt4pairIKjP6BBInfoEC2IiS2_EERKS_IT_T0_E:

00000000 <_ZNSt4pairIKjP6BBInfoEC1IiS2_EERKS_IT_T0_E>:
   0:	b480      	push	{r7}
   2:	b083      	sub	sp, #12
   4:	af00      	add	r7, sp, #0
   6:	6078      	str	r0, [r7, #4]
   8:	6039      	str	r1, [r7, #0]
   a:	683b      	ldr	r3, [r7, #0]
   c:	681b      	ldr	r3, [r3, #0]
   e:	461a      	mov	r2, r3
  10:	687b      	ldr	r3, [r7, #4]
  12:	601a      	str	r2, [r3, #0]
  14:	683b      	ldr	r3, [r7, #0]
  16:	685a      	ldr	r2, [r3, #4]
  18:	687b      	ldr	r3, [r7, #4]
  1a:	605a      	str	r2, [r3, #4]
  1c:	687b      	ldr	r3, [r7, #4]
  1e:	4618      	mov	r0, r3
  20:	370c      	adds	r7, #12
  22:	46bd      	mov	sp, r7
  24:	f85d 7b04 	ldr.w	r7, [sp], #4
  28:	4770      	bx	lr
  2a:	bf00      	nop

Disassembly of section .text._ZNSt3mapIjP6BBInfoSt4lessIjESaISt4pairIKjS1_EEE6insertERKS6_:

00000000 <_ZNSt3mapIjP6BBInfoSt4lessIjESaISt4pairIKjS1_EEE6insertERKS6_>:
   0:	b580      	push	{r7, lr}
   2:	b084      	sub	sp, #16
   4:	af00      	add	r7, sp, #0
   6:	60f8      	str	r0, [r7, #12]
   8:	60b9      	str	r1, [r7, #8]
   a:	607a      	str	r2, [r7, #4]
   c:	68bb      	ldr	r3, [r7, #8]
   e:	68fa      	ldr	r2, [r7, #12]
  10:	4610      	mov	r0, r2
  12:	4619      	mov	r1, r3
  14:	687a      	ldr	r2, [r7, #4]
  16:	f7ff fffe 	bl	0 <_ZNSt3mapIjP6BBInfoSt4lessIjESaISt4pairIKjS1_EEE6insertERKS6_>
  1a:	68f8      	ldr	r0, [r7, #12]
  1c:	3710      	adds	r7, #16
  1e:	46bd      	mov	sp, r7
  20:	bd80      	pop	{r7, pc}
  22:	bf00      	nop

Disassembly of section .text._ZNSt8_Rb_treeIjSt4pairIKjP6BBInfoESt10_Select1stIS4_ESt4lessIjESaIS4_EEC2Ev:

00000000 <_ZNSt8_Rb_treeIjSt4pairIKjP6BBInfoESt10_Select1stIS4_ESt4lessIjESaIS4_EEC1Ev>:
   0:	b580      	push	{r7, lr}
   2:	b082      	sub	sp, #8
   4:	af00      	add	r7, sp, #0
   6:	6078      	str	r0, [r7, #4]
   8:	687b      	ldr	r3, [r7, #4]
   a:	4618      	mov	r0, r3
   c:	f7ff fffe 	bl	0 <_ZNSt8_Rb_treeIjSt4pairIKjP6BBInfoESt10_Select1stIS4_ESt4lessIjESaIS4_EEC1Ev>
  10:	687b      	ldr	r3, [r7, #4]
  12:	4618      	mov	r0, r3
  14:	3708      	adds	r7, #8
  16:	46bd      	mov	sp, r7
  18:	bd80      	pop	{r7, pc}
  1a:	bf00      	nop

Disassembly of section .text._ZNSt4pairIiP6BBInfoEC2ERKiRKS1_:

00000000 <_ZNSt4pairIiP6BBInfoEC1ERKiRKS1_>:
   0:	b480      	push	{r7}
   2:	b085      	sub	sp, #20
   4:	af00      	add	r7, sp, #0
   6:	60f8      	str	r0, [r7, #12]
   8:	60b9      	str	r1, [r7, #8]
   a:	607a      	str	r2, [r7, #4]
   c:	68bb      	ldr	r3, [r7, #8]
   e:	681a      	ldr	r2, [r3, #0]
  10:	68fb      	ldr	r3, [r7, #12]
  12:	601a      	str	r2, [r3, #0]
  14:	687b      	ldr	r3, [r7, #4]
  16:	681a      	ldr	r2, [r3, #0]
  18:	68fb      	ldr	r3, [r7, #12]
  1a:	605a      	str	r2, [r3, #4]
  1c:	68fb      	ldr	r3, [r7, #12]
  1e:	4618      	mov	r0, r3
  20:	3714      	adds	r7, #20
  22:	46bd      	mov	sp, r7
  24:	f85d 7b04 	ldr.w	r7, [sp], #4
  28:	4770      	bx	lr
  2a:	bf00      	nop

Disassembly of section .text._ZNSt8_Rb_treeIjSt4pairIKjP6BBInfoESt10_Select1stIS4_ESt4lessIjESaIS4_EE16_M_insert_uniqueERKS4_:

00000000 <_ZNSt8_Rb_treeIjSt4pairIKjP6BBInfoESt10_Select1stIS4_ESt4lessIjESaIS4_EE16_M_insert_uniqueERKS4_>:
   0:	b580      	push	{r7, lr}
   2:	b08c      	sub	sp, #48	; 0x30
   4:	af00      	add	r7, sp, #0
   6:	60f8      	str	r0, [r7, #12]
   8:	60b9      	str	r1, [r7, #8]
   a:	607a      	str	r2, [r7, #4]
   c:	f107 031c 	add.w	r3, r7, #28
  10:	4618      	mov	r0, r3
  12:	6879      	ldr	r1, [r7, #4]
  14:	f7ff fffe 	bl	0 <_ZNSt8_Rb_treeIjSt4pairIKjP6BBInfoESt10_Select1stIS4_ESt4lessIjESaIS4_EE16_M_insert_uniqueERKS4_>
  18:	4602      	mov	r2, r0
  1a:	f107 0314 	add.w	r3, r7, #20
  1e:	4618      	mov	r0, r3
  20:	68b9      	ldr	r1, [r7, #8]
  22:	f7ff fffe 	bl	0 <_ZNSt8_Rb_treeIjSt4pairIKjP6BBInfoESt10_Select1stIS4_ESt4lessIjESaIS4_EE16_M_insert_uniqueERKS4_>
  26:	69bb      	ldr	r3, [r7, #24]
  28:	2b00      	cmp	r3, #0
  2a:	d016      	beq.n	5a <_ZNSt8_Rb_treeIjSt4pairIKjP6BBInfoESt10_Select1stIS4_ESt4lessIjESaIS4_EE16_M_insert_uniqueERKS4_+0x5a>
  2c:	697a      	ldr	r2, [r7, #20]
  2e:	69bb      	ldr	r3, [r7, #24]
  30:	68b8      	ldr	r0, [r7, #8]
  32:	4611      	mov	r1, r2
  34:	461a      	mov	r2, r3
  36:	687b      	ldr	r3, [r7, #4]
  38:	f7ff fffe 	bl	0 <_ZNSt8_Rb_treeIjSt4pairIKjP6BBInfoESt10_Select1stIS4_ESt4lessIjESaIS4_EE16_M_insert_uniqueERKS4_>
  3c:	4603      	mov	r3, r0
  3e:	623b      	str	r3, [r7, #32]
  40:	2301      	movs	r3, #1
  42:	f887 3027 	strb.w	r3, [r7, #39]	; 0x27
  46:	f107 0220 	add.w	r2, r7, #32
  4a:	f107 0327 	add.w	r3, r7, #39	; 0x27
  4e:	68f8      	ldr	r0, [r7, #12]
  50:	4611      	mov	r1, r2
  52:	461a      	mov	r2, r3
  54:	f7ff fffe 	bl	0 <_ZNSt8_Rb_treeIjSt4pairIKjP6BBInfoESt10_Select1stIS4_ESt4lessIjESaIS4_EE16_M_insert_uniqueERKS4_>
  58:	e012      	b.n	80 <_ZNSt8_Rb_treeIjSt4pairIKjP6BBInfoESt10_Select1stIS4_ESt4lessIjESaIS4_EE16_M_insert_uniqueERKS4_+0x80>
  5a:	697b      	ldr	r3, [r7, #20]
  5c:	f107 0228 	add.w	r2, r7, #40	; 0x28
  60:	4610      	mov	r0, r2
  62:	4619      	mov	r1, r3
  64:	f7ff fffe 	bl	0 <_ZNSt8_Rb_treeIjSt4pairIKjP6BBInfoESt10_Select1stIS4_ESt4lessIjESaIS4_EE16_M_insert_uniqueERKS4_>
  68:	2300      	movs	r3, #0
  6a:	f887 302f 	strb.w	r3, [r7, #47]	; 0x2f
  6e:	f107 0228 	add.w	r2, r7, #40	; 0x28
  72:	f107 032f 	add.w	r3, r7, #47	; 0x2f
  76:	68f8      	ldr	r0, [r7, #12]
  78:	4611      	mov	r1, r2
  7a:	461a      	mov	r2, r3
  7c:	f7ff fffe 	bl	0 <_ZNSt8_Rb_treeIjSt4pairIKjP6BBInfoESt10_Select1stIS4_ESt4lessIjESaIS4_EE16_M_insert_uniqueERKS4_>
  80:	68f8      	ldr	r0, [r7, #12]
  82:	3730      	adds	r7, #48	; 0x30
  84:	46bd      	mov	sp, r7
  86:	bd80      	pop	{r7, pc}

Disassembly of section .text._ZNSt8_Rb_treeIjSt4pairIKjP6BBInfoESt10_Select1stIS4_ESt4lessIjESaIS4_EE13_Rb_tree_implIS8_Lb0EEC2Ev:

00000000 <_ZNSt8_Rb_treeIjSt4pairIKjP6BBInfoESt10_Select1stIS4_ESt4lessIjESaIS4_EE13_Rb_tree_implIS8_Lb0EEC1Ev>:
   0:	b580      	push	{r7, lr}
   2:	b082      	sub	sp, #8
   4:	af00      	add	r7, sp, #0
   6:	6078      	str	r0, [r7, #4]
   8:	6878      	ldr	r0, [r7, #4]
   a:	f7ff fffe 	bl	0 <_ZNSt8_Rb_treeIjSt4pairIKjP6BBInfoESt10_Select1stIS4_ESt4lessIjESaIS4_EE13_Rb_tree_implIS8_Lb0EEC1Ev>
   e:	687b      	ldr	r3, [r7, #4]
  10:	2200      	movs	r2, #0
  12:	711a      	strb	r2, [r3, #4]
  14:	687b      	ldr	r3, [r7, #4]
  16:	2200      	movs	r2, #0
  18:	609a      	str	r2, [r3, #8]
  1a:	687b      	ldr	r3, [r7, #4]
  1c:	2200      	movs	r2, #0
  1e:	60da      	str	r2, [r3, #12]
  20:	687b      	ldr	r3, [r7, #4]
  22:	2200      	movs	r2, #0
  24:	611a      	str	r2, [r3, #16]
  26:	687b      	ldr	r3, [r7, #4]
  28:	2200      	movs	r2, #0
  2a:	615a      	str	r2, [r3, #20]
  2c:	6878      	ldr	r0, [r7, #4]
  2e:	f7ff fffe 	bl	0 <_ZNSt8_Rb_treeIjSt4pairIKjP6BBInfoESt10_Select1stIS4_ESt4lessIjESaIS4_EE13_Rb_tree_implIS8_Lb0EEC1Ev>
  32:	687b      	ldr	r3, [r7, #4]
  34:	4618      	mov	r0, r3
  36:	3708      	adds	r7, #8
  38:	46bd      	mov	sp, r7
  3a:	bd80      	pop	{r7, pc}

Disassembly of section .text._ZNSt8_Rb_treeIjSt4pairIKjP6BBInfoESt10_Select1stIS4_ESt4lessIjESaIS4_EE8_M_beginEv:

00000000 <_ZNSt8_Rb_treeIjSt4pairIKjP6BBInfoESt10_Select1stIS4_ESt4lessIjESaIS4_EE8_M_beginEv>:
   0:	b480      	push	{r7}
   2:	b083      	sub	sp, #12
   4:	af00      	add	r7, sp, #0
   6:	6078      	str	r0, [r7, #4]
   8:	687b      	ldr	r3, [r7, #4]
   a:	689b      	ldr	r3, [r3, #8]
   c:	4618      	mov	r0, r3
   e:	370c      	adds	r7, #12
  10:	46bd      	mov	sp, r7
  12:	f85d 7b04 	ldr.w	r7, [sp], #4
  16:	4770      	bx	lr

Disassembly of section .text._ZNSt8_Rb_treeIjSt4pairIKjP6BBInfoESt10_Select1stIS4_ESt4lessIjESaIS4_EE24_M_get_insert_unique_posERS1_:

00000000 <_ZNSt8_Rb_treeIjSt4pairIKjP6BBInfoESt10_Select1stIS4_ESt4lessIjESaIS4_EE24_M_get_insert_unique_posERS1_>:
   0:	b590      	push	{r4, r7, lr}
   2:	b08f      	sub	sp, #60	; 0x3c
   4:	af00      	add	r7, sp, #0
   6:	60f8      	str	r0, [r7, #12]
   8:	60b9      	str	r1, [r7, #8]
   a:	607a      	str	r2, [r7, #4]
   c:	68b8      	ldr	r0, [r7, #8]
   e:	f7ff fffe 	bl	0 <_ZNSt8_Rb_treeIjSt4pairIKjP6BBInfoESt10_Select1stIS4_ESt4lessIjESaIS4_EE24_M_get_insert_unique_posERS1_>
  12:	6378      	str	r0, [r7, #52]	; 0x34
  14:	68b8      	ldr	r0, [r7, #8]
  16:	f7ff fffe 	bl	0 <_ZNSt8_Rb_treeIjSt4pairIKjP6BBInfoESt10_Select1stIS4_ESt4lessIjESaIS4_EE24_M_get_insert_unique_posERS1_>
  1a:	6338      	str	r0, [r7, #48]	; 0x30
  1c:	2301      	movs	r3, #1
  1e:	f887 302f 	strb.w	r3, [r7, #47]	; 0x2f
  22:	e01c      	b.n	5e <_ZNSt8_Rb_treeIjSt4pairIKjP6BBInfoESt10_Select1stIS4_ESt4lessIjESaIS4_EE24_M_get_insert_unique_posERS1_+0x5e>
  24:	6b7b      	ldr	r3, [r7, #52]	; 0x34
  26:	633b      	str	r3, [r7, #48]	; 0x30
  28:	68bc      	ldr	r4, [r7, #8]
  2a:	6b78      	ldr	r0, [r7, #52]	; 0x34
  2c:	f7ff fffe 	bl	0 <_ZNSt8_Rb_treeIjSt4pairIKjP6BBInfoESt10_Select1stIS4_ESt4lessIjESaIS4_EE24_M_get_insert_unique_posERS1_>
  30:	4603      	mov	r3, r0
  32:	4620      	mov	r0, r4
  34:	6879      	ldr	r1, [r7, #4]
  36:	461a      	mov	r2, r3
  38:	f7ff fffe 	bl	0 <_ZNSt8_Rb_treeIjSt4pairIKjP6BBInfoESt10_Select1stIS4_ESt4lessIjESaIS4_EE24_M_get_insert_unique_posERS1_>
  3c:	4603      	mov	r3, r0
  3e:	f887 302f 	strb.w	r3, [r7, #47]	; 0x2f
  42:	f897 302f 	ldrb.w	r3, [r7, #47]	; 0x2f
  46:	2b00      	cmp	r3, #0
  48:	d004      	beq.n	54 <_ZNSt8_Rb_treeIjSt4pairIKjP6BBInfoESt10_Select1stIS4_ESt4lessIjESaIS4_EE24_M_get_insert_unique_posERS1_+0x54>
  4a:	6b78      	ldr	r0, [r7, #52]	; 0x34
  4c:	f7ff fffe 	bl	0 <_ZNSt8_Rb_treeIjSt4pairIKjP6BBInfoESt10_Select1stIS4_ESt4lessIjESaIS4_EE24_M_get_insert_unique_posERS1_>
  50:	4603      	mov	r3, r0
  52:	e003      	b.n	5c <_ZNSt8_Rb_treeIjSt4pairIKjP6BBInfoESt10_Select1stIS4_ESt4lessIjESaIS4_EE24_M_get_insert_unique_posERS1_+0x5c>
  54:	6b78      	ldr	r0, [r7, #52]	; 0x34
  56:	f7ff fffe 	bl	0 <_ZNSt8_Rb_treeIjSt4pairIKjP6BBInfoESt10_Select1stIS4_ESt4lessIjESaIS4_EE24_M_get_insert_unique_posERS1_>
  5a:	4603      	mov	r3, r0
  5c:	637b      	str	r3, [r7, #52]	; 0x34
  5e:	6b7b      	ldr	r3, [r7, #52]	; 0x34
  60:	2b00      	cmp	r3, #0
  62:	d1df      	bne.n	24 <_ZNSt8_Rb_treeIjSt4pairIKjP6BBInfoESt10_Select1stIS4_ESt4lessIjESaIS4_EE24_M_get_insert_unique_posERS1_+0x24>
  64:	f107 0310 	add.w	r3, r7, #16
  68:	4618      	mov	r0, r3
  6a:	6b39      	ldr	r1, [r7, #48]	; 0x30
  6c:	f7ff fffe 	bl	0 <_ZNSt8_Rb_treeIjSt4pairIKjP6BBInfoESt10_Select1stIS4_ESt4lessIjESaIS4_EE24_M_get_insert_unique_posERS1_>
  70:	f897 302f 	ldrb.w	r3, [r7, #47]	; 0x2f
  74:	2b00      	cmp	r3, #0
  76:	d022      	beq.n	be <_ZNSt8_Rb_treeIjSt4pairIKjP6BBInfoESt10_Select1stIS4_ESt4lessIjESaIS4_EE24_M_get_insert_unique_posERS1_+0xbe>
  78:	68b8      	ldr	r0, [r7, #8]
  7a:	f7ff fffe 	bl	0 <_ZNSt8_Rb_treeIjSt4pairIKjP6BBInfoESt10_Select1stIS4_ESt4lessIjESaIS4_EE24_M_get_insert_unique_posERS1_>
  7e:	4603      	mov	r3, r0
  80:	617b      	str	r3, [r7, #20]
  82:	f107 0210 	add.w	r2, r7, #16
  86:	f107 0314 	add.w	r3, r7, #20
  8a:	4610      	mov	r0, r2
  8c:	4619      	mov	r1, r3
  8e:	f7ff fffe 	bl	0 <_ZNSt8_Rb_treeIjSt4pairIKjP6BBInfoESt10_Select1stIS4_ESt4lessIjESaIS4_EE24_M_get_insert_unique_posERS1_>
  92:	4603      	mov	r3, r0
  94:	2b00      	cmp	r3, #0
  96:	d00d      	beq.n	b4 <_ZNSt8_Rb_treeIjSt4pairIKjP6BBInfoESt10_Select1stIS4_ESt4lessIjESaIS4_EE24_M_get_insert_unique_posERS1_+0xb4>
  98:	6b7b      	ldr	r3, [r7, #52]	; 0x34
  9a:	61bb      	str	r3, [r7, #24]
  9c:	6b3b      	ldr	r3, [r7, #48]	; 0x30
  9e:	61fb      	str	r3, [r7, #28]
  a0:	f107 0218 	add.w	r2, r7, #24
  a4:	f107 031c 	add.w	r3, r7, #28
  a8:	68f8      	ldr	r0, [r7, #12]
  aa:	4611      	mov	r1, r2
  ac:	461a      	mov	r2, r3
  ae:	f7ff fffe 	bl	0 <_ZNSt8_Rb_treeIjSt4pairIKjP6BBInfoESt10_Select1stIS4_ESt4lessIjESaIS4_EE24_M_get_insert_unique_posERS1_>
  b2:	e02b      	b.n	10c <_ZNSt8_Rb_treeIjSt4pairIKjP6BBInfoESt10_Select1stIS4_ESt4lessIjESaIS4_EE24_M_get_insert_unique_posERS1_+0x10c>
  b4:	f107 0310 	add.w	r3, r7, #16
  b8:	4618      	mov	r0, r3
  ba:	f7ff fffe 	bl	0 <_ZNSt8_Rb_treeIjSt4pairIKjP6BBInfoESt10_Select1stIS4_ESt4lessIjESaIS4_EE24_M_get_insert_unique_posERS1_>
  be:	68bc      	ldr	r4, [r7, #8]
  c0:	693b      	ldr	r3, [r7, #16]
  c2:	4618      	mov	r0, r3
  c4:	f7ff fffe 	bl	0 <_ZNSt8_Rb_treeIjSt4pairIKjP6BBInfoESt10_Select1stIS4_ESt4lessIjESaIS4_EE24_M_get_insert_unique_posERS1_>
  c8:	4603      	mov	r3, r0
  ca:	4620      	mov	r0, r4
  cc:	4619      	mov	r1, r3
  ce:	687a      	ldr	r2, [r7, #4]
  d0:	f7ff fffe 	bl	0 <_ZNSt8_Rb_treeIjSt4pairIKjP6BBInfoESt10_Select1stIS4_ESt4lessIjESaIS4_EE24_M_get_insert_unique_posERS1_>
  d4:	4603      	mov	r3, r0
  d6:	2b00      	cmp	r3, #0
  d8:	d00d      	beq.n	f6 <_ZNSt8_Rb_treeIjSt4pairIKjP6BBInfoESt10_Select1stIS4_ESt4lessIjESaIS4_EE24_M_get_insert_unique_posERS1_+0xf6>
  da:	6b7b      	ldr	r3, [r7, #52]	; 0x34
  dc:	623b      	str	r3, [r7, #32]
  de:	6b3b      	ldr	r3, [r7, #48]	; 0x30
  e0:	627b      	str	r3, [r7, #36]	; 0x24
  e2:	f107 0220 	add.w	r2, r7, #32
  e6:	f107 0324 	add.w	r3, r7, #36	; 0x24
  ea:	68f8      	ldr	r0, [r7, #12]
  ec:	4611      	mov	r1, r2
  ee:	461a      	mov	r2, r3
  f0:	f7ff fffe 	bl	0 <_ZNSt8_Rb_treeIjSt4pairIKjP6BBInfoESt10_Select1stIS4_ESt4lessIjESaIS4_EE24_M_get_insert_unique_posERS1_>
  f4:	e00a      	b.n	10c <_ZNSt8_Rb_treeIjSt4pairIKjP6BBInfoESt10_Select1stIS4_ESt4lessIjESaIS4_EE24_M_get_insert_unique_posERS1_+0x10c>
  f6:	2300      	movs	r3, #0
  f8:	62bb      	str	r3, [r7, #40]	; 0x28
  fa:	f107 0210 	add.w	r2, r7, #16
  fe:	f107 0328 	add.w	r3, r7, #40	; 0x28
 102:	68f8      	ldr	r0, [r7, #12]
 104:	4611      	mov	r1, r2
 106:	461a      	mov	r2, r3
 108:	f7ff fffe 	bl	0 <_ZNSt8_Rb_treeIjSt4pairIKjP6BBInfoESt10_Select1stIS4_ESt4lessIjESaIS4_EE24_M_get_insert_unique_posERS1_>
 10c:	68f8      	ldr	r0, [r7, #12]
 10e:	373c      	adds	r7, #60	; 0x3c
 110:	46bd      	mov	sp, r7
 112:	bd90      	pop	{r4, r7, pc}

Disassembly of section .text._ZNKSt10_Select1stISt4pairIKjP6BBInfoEEclERKS4_:

00000000 <_ZNKSt10_Select1stISt4pairIKjP6BBInfoEEclERKS4_>:
   0:	b480      	push	{r7}
   2:	b083      	sub	sp, #12
   4:	af00      	add	r7, sp, #0
   6:	6078      	str	r0, [r7, #4]
   8:	6039      	str	r1, [r7, #0]
   a:	683b      	ldr	r3, [r7, #0]
   c:	4618      	mov	r0, r3
   e:	370c      	adds	r7, #12
  10:	46bd      	mov	sp, r7
  12:	f85d 7b04 	ldr.w	r7, [sp], #4
  16:	4770      	bx	lr

Disassembly of section .text._ZNSt8_Rb_treeIjSt4pairIKjP6BBInfoESt10_Select1stIS4_ESt4lessIjESaIS4_EE10_M_insert_EPSt18_Rb_tree_node_baseSC_RKS4_:

00000000 <_ZNSt8_Rb_treeIjSt4pairIKjP6BBInfoESt10_Select1stIS4_ESt4lessIjESaIS4_EE10_M_insert_EPSt18_Rb_tree_node_baseSC_RKS4_>:
   0:	b5f0      	push	{r4, r5, r6, r7, lr}
   2:	b089      	sub	sp, #36	; 0x24
   4:	af00      	add	r7, sp, #0
   6:	60f8      	str	r0, [r7, #12]
   8:	60b9      	str	r1, [r7, #8]
   a:	607a      	str	r2, [r7, #4]
   c:	603b      	str	r3, [r7, #0]
   e:	2400      	movs	r4, #0
  10:	68bb      	ldr	r3, [r7, #8]
  12:	2b00      	cmp	r3, #0
  14:	d11b      	bne.n	4e <_ZNSt8_Rb_treeIjSt4pairIKjP6BBInfoESt10_Select1stIS4_ESt4lessIjESaIS4_EE10_M_insert_EPSt18_Rb_tree_node_baseSC_RKS4_+0x4e>
  16:	68f8      	ldr	r0, [r7, #12]
  18:	f7ff fffe 	bl	0 <_ZNSt8_Rb_treeIjSt4pairIKjP6BBInfoESt10_Select1stIS4_ESt4lessIjESaIS4_EE10_M_insert_EPSt18_Rb_tree_node_baseSC_RKS4_>
  1c:	4602      	mov	r2, r0
  1e:	687b      	ldr	r3, [r7, #4]
  20:	429a      	cmp	r2, r3
  22:	d014      	beq.n	4e <_ZNSt8_Rb_treeIjSt4pairIKjP6BBInfoESt10_Select1stIS4_ESt4lessIjESaIS4_EE10_M_insert_EPSt18_Rb_tree_node_baseSC_RKS4_+0x4e>
  24:	68fd      	ldr	r5, [r7, #12]
  26:	2401      	movs	r4, #1
  28:	f107 0310 	add.w	r3, r7, #16
  2c:	4618      	mov	r0, r3
  2e:	6839      	ldr	r1, [r7, #0]
  30:	f7ff fffe 	bl	0 <_ZNSt8_Rb_treeIjSt4pairIKjP6BBInfoESt10_Select1stIS4_ESt4lessIjESaIS4_EE10_M_insert_EPSt18_Rb_tree_node_baseSC_RKS4_>
  34:	4606      	mov	r6, r0
  36:	6878      	ldr	r0, [r7, #4]
  38:	f7ff fffe 	bl	0 <_ZNSt8_Rb_treeIjSt4pairIKjP6BBInfoESt10_Select1stIS4_ESt4lessIjESaIS4_EE10_M_insert_EPSt18_Rb_tree_node_baseSC_RKS4_>
  3c:	4603      	mov	r3, r0
  3e:	4628      	mov	r0, r5
  40:	4631      	mov	r1, r6
  42:	461a      	mov	r2, r3
  44:	f7ff fffe 	bl	0 <_ZNSt8_Rb_treeIjSt4pairIKjP6BBInfoESt10_Select1stIS4_ESt4lessIjESaIS4_EE10_M_insert_EPSt18_Rb_tree_node_baseSC_RKS4_>
  48:	4603      	mov	r3, r0
  4a:	2b00      	cmp	r3, #0
  4c:	d001      	beq.n	52 <_ZNSt8_Rb_treeIjSt4pairIKjP6BBInfoESt10_Select1stIS4_ESt4lessIjESaIS4_EE10_M_insert_EPSt18_Rb_tree_node_baseSC_RKS4_+0x52>
  4e:	2301      	movs	r3, #1
  50:	e000      	b.n	54 <_ZNSt8_Rb_treeIjSt4pairIKjP6BBInfoESt10_Select1stIS4_ESt4lessIjESaIS4_EE10_M_insert_EPSt18_Rb_tree_node_baseSC_RKS4_+0x54>
  52:	2300      	movs	r3, #0
  54:	77fb      	strb	r3, [r7, #31]
  56:	2c00      	cmp	r4, #0
  58:	bf00      	nop
  5a:	68f8      	ldr	r0, [r7, #12]
  5c:	6839      	ldr	r1, [r7, #0]
  5e:	f7ff fffe 	bl	0 <_ZNSt8_Rb_treeIjSt4pairIKjP6BBInfoESt10_Select1stIS4_ESt4lessIjESaIS4_EE10_M_insert_EPSt18_Rb_tree_node_baseSC_RKS4_>
  62:	4603      	mov	r3, r0
  64:	61bb      	str	r3, [r7, #24]
  66:	68fb      	ldr	r3, [r7, #12]
  68:	3304      	adds	r3, #4
  6a:	7ffa      	ldrb	r2, [r7, #31]
  6c:	4610      	mov	r0, r2
  6e:	69b9      	ldr	r1, [r7, #24]
  70:	687a      	ldr	r2, [r7, #4]
  72:	f7ff fffe 	bl	0 <_ZSt29_Rb_tree_insert_and_rebalancebPSt18_Rb_tree_node_baseS0_RS_>
  76:	68fb      	ldr	r3, [r7, #12]
  78:	695b      	ldr	r3, [r3, #20]
  7a:	1c5a      	adds	r2, r3, #1
  7c:	68fb      	ldr	r3, [r7, #12]
  7e:	615a      	str	r2, [r3, #20]
  80:	f107 0314 	add.w	r3, r7, #20
  84:	4618      	mov	r0, r3
  86:	69b9      	ldr	r1, [r7, #24]
  88:	f7ff fffe 	bl	0 <_ZNSt8_Rb_treeIjSt4pairIKjP6BBInfoESt10_Select1stIS4_ESt4lessIjESaIS4_EE10_M_insert_EPSt18_Rb_tree_node_baseSC_RKS4_>
  8c:	697b      	ldr	r3, [r7, #20]
  8e:	e003      	b.n	98 <_ZNSt8_Rb_treeIjSt4pairIKjP6BBInfoESt10_Select1stIS4_ESt4lessIjESaIS4_EE10_M_insert_EPSt18_Rb_tree_node_baseSC_RKS4_+0x98>
  90:	2c00      	cmp	r4, #0
  92:	bf00      	nop
  94:	f7ff fffe 	bl	0 <__cxa_end_cleanup>
  98:	4618      	mov	r0, r3
  9a:	3724      	adds	r7, #36	; 0x24
  9c:	46bd      	mov	sp, r7
  9e:	bdf0      	pop	{r4, r5, r6, r7, pc}

Disassembly of section .text._ZNSt4pairISt17_Rb_tree_iteratorIS_IKjP6BBInfoEEbEC2ERKS5_RKb:

00000000 <_ZNSt4pairISt17_Rb_tree_iteratorIS_IKjP6BBInfoEEbEC1ERKS5_RKb>:
   0:	b480      	push	{r7}
   2:	b085      	sub	sp, #20
   4:	af00      	add	r7, sp, #0
   6:	60f8      	str	r0, [r7, #12]
   8:	60b9      	str	r1, [r7, #8]
   a:	607a      	str	r2, [r7, #4]
   c:	68fb      	ldr	r3, [r7, #12]
   e:	68ba      	ldr	r2, [r7, #8]
  10:	6812      	ldr	r2, [r2, #0]
  12:	601a      	str	r2, [r3, #0]
  14:	687b      	ldr	r3, [r7, #4]
  16:	781a      	ldrb	r2, [r3, #0]
  18:	68fb      	ldr	r3, [r7, #12]
  1a:	711a      	strb	r2, [r3, #4]
  1c:	68fb      	ldr	r3, [r7, #12]
  1e:	4618      	mov	r0, r3
  20:	3714      	adds	r7, #20
  22:	46bd      	mov	sp, r7
  24:	f85d 7b04 	ldr.w	r7, [sp], #4
  28:	4770      	bx	lr
  2a:	bf00      	nop

Disassembly of section .text._ZNSt17_Rb_tree_iteratorISt4pairIKjP6BBInfoEEC2EPSt13_Rb_tree_nodeIS4_E:

00000000 <_ZNSt17_Rb_tree_iteratorISt4pairIKjP6BBInfoEEC1EPSt13_Rb_tree_nodeIS4_E>:
   0:	b480      	push	{r7}
   2:	b083      	sub	sp, #12
   4:	af00      	add	r7, sp, #0
   6:	6078      	str	r0, [r7, #4]
   8:	6039      	str	r1, [r7, #0]
   a:	687b      	ldr	r3, [r7, #4]
   c:	683a      	ldr	r2, [r7, #0]
   e:	601a      	str	r2, [r3, #0]
  10:	687b      	ldr	r3, [r7, #4]
  12:	4618      	mov	r0, r3
  14:	370c      	adds	r7, #12
  16:	46bd      	mov	sp, r7
  18:	f85d 7b04 	ldr.w	r7, [sp], #4
  1c:	4770      	bx	lr
  1e:	bf00      	nop

Disassembly of section .text._ZNSaISt13_Rb_tree_nodeISt4pairIKjP6BBInfoEEEC2Ev:

00000000 <_ZNSaISt13_Rb_tree_nodeISt4pairIKjP6BBInfoEEEC1Ev>:
   0:	b580      	push	{r7, lr}
   2:	b082      	sub	sp, #8
   4:	af00      	add	r7, sp, #0
   6:	6078      	str	r0, [r7, #4]
   8:	6878      	ldr	r0, [r7, #4]
   a:	f7ff fffe 	bl	0 <_ZNSaISt13_Rb_tree_nodeISt4pairIKjP6BBInfoEEEC1Ev>
   e:	687b      	ldr	r3, [r7, #4]
  10:	4618      	mov	r0, r3
  12:	3708      	adds	r7, #8
  14:	46bd      	mov	sp, r7
  16:	bd80      	pop	{r7, pc}

Disassembly of section .text._ZNSt8_Rb_treeIjSt4pairIKjP6BBInfoESt10_Select1stIS4_ESt4lessIjESaIS4_EE13_Rb_tree_implIS8_Lb0EE13_M_initializeEv:

00000000 <_ZNSt8_Rb_treeIjSt4pairIKjP6BBInfoESt10_Select1stIS4_ESt4lessIjESaIS4_EE13_Rb_tree_implIS8_Lb0EE13_M_initializeEv>:
   0:	b480      	push	{r7}
   2:	b083      	sub	sp, #12
   4:	af00      	add	r7, sp, #0
   6:	6078      	str	r0, [r7, #4]
   8:	687b      	ldr	r3, [r7, #4]
   a:	2200      	movs	r2, #0
   c:	711a      	strb	r2, [r3, #4]
   e:	687b      	ldr	r3, [r7, #4]
  10:	2200      	movs	r2, #0
  12:	609a      	str	r2, [r3, #8]
  14:	687b      	ldr	r3, [r7, #4]
  16:	1d1a      	adds	r2, r3, #4
  18:	687b      	ldr	r3, [r7, #4]
  1a:	60da      	str	r2, [r3, #12]
  1c:	687b      	ldr	r3, [r7, #4]
  1e:	1d1a      	adds	r2, r3, #4
  20:	687b      	ldr	r3, [r7, #4]
  22:	611a      	str	r2, [r3, #16]
  24:	370c      	adds	r7, #12
  26:	46bd      	mov	sp, r7
  28:	f85d 7b04 	ldr.w	r7, [sp], #4
  2c:	4770      	bx	lr
  2e:	bf00      	nop

Disassembly of section .text._ZNSt8_Rb_treeIjSt4pairIKjP6BBInfoESt10_Select1stIS4_ESt4lessIjESaIS4_EE8_S_rightEPSt18_Rb_tree_node_base:

00000000 <_ZNSt8_Rb_treeIjSt4pairIKjP6BBInfoESt10_Select1stIS4_ESt4lessIjESaIS4_EE8_S_rightEPSt18_Rb_tree_node_base>:
   0:	b480      	push	{r7}
   2:	b083      	sub	sp, #12
   4:	af00      	add	r7, sp, #0
   6:	6078      	str	r0, [r7, #4]
   8:	687b      	ldr	r3, [r7, #4]
   a:	68db      	ldr	r3, [r3, #12]
   c:	4618      	mov	r0, r3
   e:	370c      	adds	r7, #12
  10:	46bd      	mov	sp, r7
  12:	f85d 7b04 	ldr.w	r7, [sp], #4
  16:	4770      	bx	lr

Disassembly of section .text._ZNSt8_Rb_treeIjSt4pairIKjP6BBInfoESt10_Select1stIS4_ESt4lessIjESaIS4_EE7_S_leftEPSt18_Rb_tree_node_base:

00000000 <_ZNSt8_Rb_treeIjSt4pairIKjP6BBInfoESt10_Select1stIS4_ESt4lessIjESaIS4_EE7_S_leftEPSt18_Rb_tree_node_base>:
   0:	b480      	push	{r7}
   2:	b083      	sub	sp, #12
   4:	af00      	add	r7, sp, #0
   6:	6078      	str	r0, [r7, #4]
   8:	687b      	ldr	r3, [r7, #4]
   a:	689b      	ldr	r3, [r3, #8]
   c:	4618      	mov	r0, r3
   e:	370c      	adds	r7, #12
  10:	46bd      	mov	sp, r7
  12:	f85d 7b04 	ldr.w	r7, [sp], #4
  16:	4770      	bx	lr

Disassembly of section .text._ZNSt8_Rb_treeIjSt4pairIKjP6BBInfoESt10_Select1stIS4_ESt4lessIjESaIS4_EE6_M_endEv:

00000000 <_ZNSt8_Rb_treeIjSt4pairIKjP6BBInfoESt10_Select1stIS4_ESt4lessIjESaIS4_EE6_M_endEv>:
   0:	b480      	push	{r7}
   2:	b083      	sub	sp, #12
   4:	af00      	add	r7, sp, #0
   6:	6078      	str	r0, [r7, #4]
   8:	687b      	ldr	r3, [r7, #4]
   a:	3304      	adds	r3, #4
   c:	4618      	mov	r0, r3
   e:	370c      	adds	r7, #12
  10:	46bd      	mov	sp, r7
  12:	f85d 7b04 	ldr.w	r7, [sp], #4
  16:	4770      	bx	lr

Disassembly of section .text._ZNSt8_Rb_treeIjSt4pairIKjP6BBInfoESt10_Select1stIS4_ESt4lessIjESaIS4_EE6_S_keyEPKSt13_Rb_tree_nodeIS4_E:

00000000 <_ZNSt8_Rb_treeIjSt4pairIKjP6BBInfoESt10_Select1stIS4_ESt4lessIjESaIS4_EE6_S_keyEPKSt13_Rb_tree_nodeIS4_E>:
   0:	b580      	push	{r7, lr}
   2:	b084      	sub	sp, #16
   4:	af00      	add	r7, sp, #0
   6:	6078      	str	r0, [r7, #4]
   8:	6878      	ldr	r0, [r7, #4]
   a:	f7ff fffe 	bl	0 <_ZNSt8_Rb_treeIjSt4pairIKjP6BBInfoESt10_Select1stIS4_ESt4lessIjESaIS4_EE6_S_keyEPKSt13_Rb_tree_nodeIS4_E>
   e:	4602      	mov	r2, r0
  10:	f107 030c 	add.w	r3, r7, #12
  14:	4618      	mov	r0, r3
  16:	4611      	mov	r1, r2
  18:	f7ff fffe 	bl	0 <_ZNSt8_Rb_treeIjSt4pairIKjP6BBInfoESt10_Select1stIS4_ESt4lessIjESaIS4_EE6_S_keyEPKSt13_Rb_tree_nodeIS4_E>
  1c:	4603      	mov	r3, r0
  1e:	4618      	mov	r0, r3
  20:	3710      	adds	r7, #16
  22:	46bd      	mov	sp, r7
  24:	bd80      	pop	{r7, pc}
  26:	bf00      	nop

Disassembly of section .text._ZNKSt4lessIjEclERKjS2_:

00000000 <_ZNKSt4lessIjEclERKjS2_>:
   0:	b480      	push	{r7}
   2:	b085      	sub	sp, #20
   4:	af00      	add	r7, sp, #0
   6:	60f8      	str	r0, [r7, #12]
   8:	60b9      	str	r1, [r7, #8]
   a:	607a      	str	r2, [r7, #4]
   c:	68bb      	ldr	r3, [r7, #8]
   e:	681a      	ldr	r2, [r3, #0]
  10:	687b      	ldr	r3, [r7, #4]
  12:	681b      	ldr	r3, [r3, #0]
  14:	429a      	cmp	r2, r3
  16:	bf34      	ite	cc
  18:	2301      	movcc	r3, #1
  1a:	2300      	movcs	r3, #0
  1c:	b2db      	uxtb	r3, r3
  1e:	4618      	mov	r0, r3
  20:	3714      	adds	r7, #20
  22:	46bd      	mov	sp, r7
  24:	f85d 7b04 	ldr.w	r7, [sp], #4
  28:	4770      	bx	lr
  2a:	bf00      	nop

Disassembly of section .text._ZNSt8_Rb_treeIjSt4pairIKjP6BBInfoESt10_Select1stIS4_ESt4lessIjESaIS4_EE5beginEv:

00000000 <_ZNSt8_Rb_treeIjSt4pairIKjP6BBInfoESt10_Select1stIS4_ESt4lessIjESaIS4_EE5beginEv>:
   0:	b580      	push	{r7, lr}
   2:	b084      	sub	sp, #16
   4:	af00      	add	r7, sp, #0
   6:	6078      	str	r0, [r7, #4]
   8:	687b      	ldr	r3, [r7, #4]
   a:	68db      	ldr	r3, [r3, #12]
   c:	f107 020c 	add.w	r2, r7, #12
  10:	4610      	mov	r0, r2
  12:	4619      	mov	r1, r3
  14:	f7ff fffe 	bl	0 <_ZNSt8_Rb_treeIjSt4pairIKjP6BBInfoESt10_Select1stIS4_ESt4lessIjESaIS4_EE5beginEv>
  18:	68fb      	ldr	r3, [r7, #12]
  1a:	4618      	mov	r0, r3
  1c:	3710      	adds	r7, #16
  1e:	46bd      	mov	sp, r7
  20:	bd80      	pop	{r7, pc}
  22:	bf00      	nop

Disassembly of section .text._ZNKSt17_Rb_tree_iteratorISt4pairIKjP6BBInfoEEeqERKS5_:

00000000 <_ZNKSt17_Rb_tree_iteratorISt4pairIKjP6BBInfoEEeqERKS5_>:
   0:	b480      	push	{r7}
   2:	b083      	sub	sp, #12
   4:	af00      	add	r7, sp, #0
   6:	6078      	str	r0, [r7, #4]
   8:	6039      	str	r1, [r7, #0]
   a:	687b      	ldr	r3, [r7, #4]
   c:	681a      	ldr	r2, [r3, #0]
   e:	683b      	ldr	r3, [r7, #0]
  10:	681b      	ldr	r3, [r3, #0]
  12:	429a      	cmp	r2, r3
  14:	bf0c      	ite	eq
  16:	2301      	moveq	r3, #1
  18:	2300      	movne	r3, #0
  1a:	b2db      	uxtb	r3, r3
  1c:	4618      	mov	r0, r3
  1e:	370c      	adds	r7, #12
  20:	46bd      	mov	sp, r7
  22:	f85d 7b04 	ldr.w	r7, [sp], #4
  26:	4770      	bx	lr

Disassembly of section .text._ZNSt4pairIPSt18_Rb_tree_node_baseS1_EC2ERKS1_S4_:

00000000 <_ZNSt4pairIPSt18_Rb_tree_node_baseS1_EC1ERKS1_S4_>:
   0:	b480      	push	{r7}
   2:	b085      	sub	sp, #20
   4:	af00      	add	r7, sp, #0
   6:	60f8      	str	r0, [r7, #12]
   8:	60b9      	str	r1, [r7, #8]
   a:	607a      	str	r2, [r7, #4]
   c:	68bb      	ldr	r3, [r7, #8]
   e:	681a      	ldr	r2, [r3, #0]
  10:	68fb      	ldr	r3, [r7, #12]
  12:	601a      	str	r2, [r3, #0]
  14:	687b      	ldr	r3, [r7, #4]
  16:	681a      	ldr	r2, [r3, #0]
  18:	68fb      	ldr	r3, [r7, #12]
  1a:	605a      	str	r2, [r3, #4]
  1c:	68fb      	ldr	r3, [r7, #12]
  1e:	4618      	mov	r0, r3
  20:	3714      	adds	r7, #20
  22:	46bd      	mov	sp, r7
  24:	f85d 7b04 	ldr.w	r7, [sp], #4
  28:	4770      	bx	lr
  2a:	bf00      	nop

Disassembly of section .text._ZNSt17_Rb_tree_iteratorISt4pairIKjP6BBInfoEEmmEv:

00000000 <_ZNSt17_Rb_tree_iteratorISt4pairIKjP6BBInfoEEmmEv>:
   0:	b580      	push	{r7, lr}
   2:	b082      	sub	sp, #8
   4:	af00      	add	r7, sp, #0
   6:	6078      	str	r0, [r7, #4]
   8:	687b      	ldr	r3, [r7, #4]
   a:	681b      	ldr	r3, [r3, #0]
   c:	4618      	mov	r0, r3
   e:	f7ff fffe 	bl	0 <_ZSt18_Rb_tree_decrementPSt18_Rb_tree_node_base>
  12:	4602      	mov	r2, r0
  14:	687b      	ldr	r3, [r7, #4]
  16:	601a      	str	r2, [r3, #0]
  18:	687b      	ldr	r3, [r7, #4]
  1a:	4618      	mov	r0, r3
  1c:	3708      	adds	r7, #8
  1e:	46bd      	mov	sp, r7
  20:	bd80      	pop	{r7, pc}
  22:	bf00      	nop

Disassembly of section .text._ZNSt8_Rb_treeIjSt4pairIKjP6BBInfoESt10_Select1stIS4_ESt4lessIjESaIS4_EE6_S_keyEPKSt18_Rb_tree_node_base:

00000000 <_ZNSt8_Rb_treeIjSt4pairIKjP6BBInfoESt10_Select1stIS4_ESt4lessIjESaIS4_EE6_S_keyEPKSt18_Rb_tree_node_base>:
   0:	b580      	push	{r7, lr}
   2:	b084      	sub	sp, #16
   4:	af00      	add	r7, sp, #0
   6:	6078      	str	r0, [r7, #4]
   8:	6878      	ldr	r0, [r7, #4]
   a:	f7ff fffe 	bl	0 <_ZNSt8_Rb_treeIjSt4pairIKjP6BBInfoESt10_Select1stIS4_ESt4lessIjESaIS4_EE6_S_keyEPKSt18_Rb_tree_node_base>
   e:	4602      	mov	r2, r0
  10:	f107 030c 	add.w	r3, r7, #12
  14:	4618      	mov	r0, r3
  16:	4611      	mov	r1, r2
  18:	f7ff fffe 	bl	0 <_ZNSt8_Rb_treeIjSt4pairIKjP6BBInfoESt10_Select1stIS4_ESt4lessIjESaIS4_EE6_S_keyEPKSt18_Rb_tree_node_base>
  1c:	4603      	mov	r3, r0
  1e:	4618      	mov	r0, r3
  20:	3710      	adds	r7, #16
  22:	46bd      	mov	sp, r7
  24:	bd80      	pop	{r7, pc}
  26:	bf00      	nop

Disassembly of section .text._ZNSt8_Rb_treeIjSt4pairIKjP6BBInfoESt10_Select1stIS4_ESt4lessIjESaIS4_EE14_M_create_nodeERKS4_:

00000000 <_ZNSt8_Rb_treeIjSt4pairIKjP6BBInfoESt10_Select1stIS4_ESt4lessIjESaIS4_EE14_M_create_nodeERKS4_>:
   0:	b590      	push	{r4, r7, lr}
   2:	b085      	sub	sp, #20
   4:	af00      	add	r7, sp, #0
   6:	6078      	str	r0, [r7, #4]
   8:	6039      	str	r1, [r7, #0]
   a:	6878      	ldr	r0, [r7, #4]
   c:	f7ff fffe 	bl	0 <_ZNSt8_Rb_treeIjSt4pairIKjP6BBInfoESt10_Select1stIS4_ESt4lessIjESaIS4_EE14_M_create_nodeERKS4_>
  10:	4603      	mov	r3, r0
  12:	60fb      	str	r3, [r7, #12]
  14:	f107 0308 	add.w	r3, r7, #8
  18:	4618      	mov	r0, r3
  1a:	6879      	ldr	r1, [r7, #4]
  1c:	f7ff fffe 	bl	0 <_ZNSt8_Rb_treeIjSt4pairIKjP6BBInfoESt10_Select1stIS4_ESt4lessIjESaIS4_EE14_M_create_nodeERKS4_>
  20:	68f8      	ldr	r0, [r7, #12]
  22:	f7ff fffe 	bl	0 <_ZNSt8_Rb_treeIjSt4pairIKjP6BBInfoESt10_Select1stIS4_ESt4lessIjESaIS4_EE14_M_create_nodeERKS4_>
  26:	4602      	mov	r2, r0
  28:	f107 0308 	add.w	r3, r7, #8
  2c:	4618      	mov	r0, r3
  2e:	4611      	mov	r1, r2
  30:	683a      	ldr	r2, [r7, #0]
  32:	f7ff fffe 	bl	0 <_ZNSt8_Rb_treeIjSt4pairIKjP6BBInfoESt10_Select1stIS4_ESt4lessIjESaIS4_EE14_M_create_nodeERKS4_>
  36:	f107 0308 	add.w	r3, r7, #8
  3a:	4618      	mov	r0, r3
  3c:	f7ff fffe 	bl	0 <_ZNSt8_Rb_treeIjSt4pairIKjP6BBInfoESt10_Select1stIS4_ESt4lessIjESaIS4_EE14_M_create_nodeERKS4_>
  40:	68fb      	ldr	r3, [r7, #12]
  42:	e015      	b.n	70 <_ZNSt8_Rb_treeIjSt4pairIKjP6BBInfoESt10_Select1stIS4_ESt4lessIjESaIS4_EE14_M_create_nodeERKS4_+0x70>
  44:	4604      	mov	r4, r0
  46:	f107 0308 	add.w	r3, r7, #8
  4a:	4618      	mov	r0, r3
  4c:	f7ff fffe 	bl	0 <_ZNSt8_Rb_treeIjSt4pairIKjP6BBInfoESt10_Select1stIS4_ESt4lessIjESaIS4_EE14_M_create_nodeERKS4_>
  50:	4623      	mov	r3, r4
  52:	e004      	b.n	5e <_ZNSt8_Rb_treeIjSt4pairIKjP6BBInfoESt10_Select1stIS4_ESt4lessIjESaIS4_EE14_M_create_nodeERKS4_+0x5e>
  54:	f7ff fffe 	bl	0 <__cxa_end_catch>
  58:	f7ff fffe 	bl	0 <__cxa_end_cleanup>
  5c:	4603      	mov	r3, r0
  5e:	4618      	mov	r0, r3
  60:	f7ff fffe 	bl	0 <__cxa_begin_catch>
  64:	6878      	ldr	r0, [r7, #4]
  66:	68f9      	ldr	r1, [r7, #12]
  68:	f7ff fffe 	bl	0 <_ZNSt8_Rb_treeIjSt4pairIKjP6BBInfoESt10_Select1stIS4_ESt4lessIjESaIS4_EE14_M_create_nodeERKS4_>
  6c:	f7ff fffe 	bl	0 <__cxa_rethrow>
  70:	4618      	mov	r0, r3
  72:	3714      	adds	r7, #20
  74:	46bd      	mov	sp, r7
  76:	bd90      	pop	{r4, r7, pc}

Disassembly of section .text._ZN9__gnu_cxx13new_allocatorISt13_Rb_tree_nodeISt4pairIKjP6BBInfoEEEC2Ev:

00000000 <_ZN9__gnu_cxx13new_allocatorISt13_Rb_tree_nodeISt4pairIKjP6BBInfoEEEC1Ev>:
   0:	b480      	push	{r7}
   2:	b083      	sub	sp, #12
   4:	af00      	add	r7, sp, #0
   6:	6078      	str	r0, [r7, #4]
   8:	687b      	ldr	r3, [r7, #4]
   a:	4618      	mov	r0, r3
   c:	370c      	adds	r7, #12
   e:	46bd      	mov	sp, r7
  10:	f85d 7b04 	ldr.w	r7, [sp], #4
  14:	4770      	bx	lr
  16:	bf00      	nop

Disassembly of section .text._ZNKSt8_Rb_treeIjSt4pairIKjP6BBInfoESt10_Select1stIS4_ESt4lessIjESaIS4_EE13get_allocatorEv:

00000000 <_ZNKSt8_Rb_treeIjSt4pairIKjP6BBInfoESt10_Select1stIS4_ESt4lessIjESaIS4_EE13get_allocatorEv>:
   0:	b580      	push	{r7, lr}
   2:	b082      	sub	sp, #8
   4:	af00      	add	r7, sp, #0
   6:	6078      	str	r0, [r7, #4]
   8:	6039      	str	r1, [r7, #0]
   a:	6838      	ldr	r0, [r7, #0]
   c:	f7ff fffe 	bl	0 <_ZNKSt8_Rb_treeIjSt4pairIKjP6BBInfoESt10_Select1stIS4_ESt4lessIjESaIS4_EE13get_allocatorEv>
  10:	4603      	mov	r3, r0
  12:	6878      	ldr	r0, [r7, #4]
  14:	4619      	mov	r1, r3
  16:	f7ff fffe 	bl	0 <_ZNKSt8_Rb_treeIjSt4pairIKjP6BBInfoESt10_Select1stIS4_ESt4lessIjESaIS4_EE13get_allocatorEv>
  1a:	6878      	ldr	r0, [r7, #4]
  1c:	3708      	adds	r7, #8
  1e:	46bd      	mov	sp, r7
  20:	bd80      	pop	{r7, pc}
  22:	bf00      	nop

Disassembly of section .text._ZNSaISt4pairIKjP6BBInfoEED2Ev:

00000000 <_ZNSaISt4pairIKjP6BBInfoEED1Ev>:
   0:	b580      	push	{r7, lr}
   2:	b082      	sub	sp, #8
   4:	af00      	add	r7, sp, #0
   6:	6078      	str	r0, [r7, #4]
   8:	6878      	ldr	r0, [r7, #4]
   a:	f7ff fffe 	bl	0 <_ZNSaISt4pairIKjP6BBInfoEED1Ev>
   e:	687b      	ldr	r3, [r7, #4]
  10:	4618      	mov	r0, r3
  12:	3708      	adds	r7, #8
  14:	46bd      	mov	sp, r7
  16:	bd80      	pop	{r7, pc}

Disassembly of section .text._ZNSt13_Rb_tree_nodeISt4pairIKjP6BBInfoEE9_M_valptrEv:

00000000 <_ZNSt13_Rb_tree_nodeISt4pairIKjP6BBInfoEE9_M_valptrEv>:
   0:	b580      	push	{r7, lr}
   2:	b082      	sub	sp, #8
   4:	af00      	add	r7, sp, #0
   6:	6078      	str	r0, [r7, #4]
   8:	687b      	ldr	r3, [r7, #4]
   a:	3310      	adds	r3, #16
   c:	4618      	mov	r0, r3
   e:	f7ff fffe 	bl	0 <_ZNSt13_Rb_tree_nodeISt4pairIKjP6BBInfoEE9_M_valptrEv>
  12:	4603      	mov	r3, r0
  14:	4618      	mov	r0, r3
  16:	3708      	adds	r7, #8
  18:	46bd      	mov	sp, r7
  1a:	bd80      	pop	{r7, pc}

Disassembly of section .text._ZNSt8_Rb_treeIjSt4pairIKjP6BBInfoESt10_Select1stIS4_ESt4lessIjESaIS4_EE11_M_put_nodeEPSt13_Rb_tree_nodeIS4_E:

00000000 <_ZNSt8_Rb_treeIjSt4pairIKjP6BBInfoESt10_Select1stIS4_ESt4lessIjESaIS4_EE11_M_put_nodeEPSt13_Rb_tree_nodeIS4_E>:
   0:	b580      	push	{r7, lr}
   2:	b082      	sub	sp, #8
   4:	af00      	add	r7, sp, #0
   6:	6078      	str	r0, [r7, #4]
   8:	6039      	str	r1, [r7, #0]
   a:	6878      	ldr	r0, [r7, #4]
   c:	f7ff fffe 	bl	0 <_ZNSt8_Rb_treeIjSt4pairIKjP6BBInfoESt10_Select1stIS4_ESt4lessIjESaIS4_EE11_M_put_nodeEPSt13_Rb_tree_nodeIS4_E>
  10:	4603      	mov	r3, r0
  12:	4618      	mov	r0, r3
  14:	6839      	ldr	r1, [r7, #0]
  16:	2201      	movs	r2, #1
  18:	f7ff fffe 	bl	0 <_ZNSt8_Rb_treeIjSt4pairIKjP6BBInfoESt10_Select1stIS4_ESt4lessIjESaIS4_EE11_M_put_nodeEPSt13_Rb_tree_nodeIS4_E>
  1c:	3708      	adds	r7, #8
  1e:	46bd      	mov	sp, r7
  20:	bd80      	pop	{r7, pc}
  22:	bf00      	nop

Disassembly of section .text._ZNSt8_Rb_treeIjSt4pairIKjP6BBInfoESt10_Select1stIS4_ESt4lessIjESaIS4_EE8_S_valueEPKSt13_Rb_tree_nodeIS4_E:

00000000 <_ZNSt8_Rb_treeIjSt4pairIKjP6BBInfoESt10_Select1stIS4_ESt4lessIjESaIS4_EE8_S_valueEPKSt13_Rb_tree_nodeIS4_E>:
   0:	b580      	push	{r7, lr}
   2:	b082      	sub	sp, #8
   4:	af00      	add	r7, sp, #0
   6:	6078      	str	r0, [r7, #4]
   8:	6878      	ldr	r0, [r7, #4]
   a:	f7ff fffe 	bl	0 <_ZNSt8_Rb_treeIjSt4pairIKjP6BBInfoESt10_Select1stIS4_ESt4lessIjESaIS4_EE8_S_valueEPKSt13_Rb_tree_nodeIS4_E>
   e:	4603      	mov	r3, r0
  10:	4618      	mov	r0, r3
  12:	3708      	adds	r7, #8
  14:	46bd      	mov	sp, r7
  16:	bd80      	pop	{r7, pc}

Disassembly of section .text._ZNSt8_Rb_treeIjSt4pairIKjP6BBInfoESt10_Select1stIS4_ESt4lessIjESaIS4_EE8_S_valueEPKSt18_Rb_tree_node_base:

00000000 <_ZNSt8_Rb_treeIjSt4pairIKjP6BBInfoESt10_Select1stIS4_ESt4lessIjESaIS4_EE8_S_valueEPKSt18_Rb_tree_node_base>:
   0:	b580      	push	{r7, lr}
   2:	b082      	sub	sp, #8
   4:	af00      	add	r7, sp, #0
   6:	6078      	str	r0, [r7, #4]
   8:	6878      	ldr	r0, [r7, #4]
   a:	f7ff fffe 	bl	0 <_ZNSt8_Rb_treeIjSt4pairIKjP6BBInfoESt10_Select1stIS4_ESt4lessIjESaIS4_EE8_S_valueEPKSt18_Rb_tree_node_base>
   e:	4603      	mov	r3, r0
  10:	4618      	mov	r0, r3
  12:	3708      	adds	r7, #8
  14:	46bd      	mov	sp, r7
  16:	bd80      	pop	{r7, pc}

Disassembly of section .text._ZNSt8_Rb_treeIjSt4pairIKjP6BBInfoESt10_Select1stIS4_ESt4lessIjESaIS4_EE11_M_get_nodeEv:

00000000 <_ZNSt8_Rb_treeIjSt4pairIKjP6BBInfoESt10_Select1stIS4_ESt4lessIjESaIS4_EE11_M_get_nodeEv>:
   0:	b580      	push	{r7, lr}
   2:	b082      	sub	sp, #8
   4:	af00      	add	r7, sp, #0
   6:	6078      	str	r0, [r7, #4]
   8:	6878      	ldr	r0, [r7, #4]
   a:	f7ff fffe 	bl	0 <_ZNSt8_Rb_treeIjSt4pairIKjP6BBInfoESt10_Select1stIS4_ESt4lessIjESaIS4_EE11_M_get_nodeEv>
   e:	4603      	mov	r3, r0
  10:	4618      	mov	r0, r3
  12:	2101      	movs	r1, #1
  14:	f7ff fffe 	bl	0 <_ZNSt8_Rb_treeIjSt4pairIKjP6BBInfoESt10_Select1stIS4_ESt4lessIjESaIS4_EE11_M_get_nodeEv>
  18:	4603      	mov	r3, r0
  1a:	4618      	mov	r0, r3
  1c:	3708      	adds	r7, #8
  1e:	46bd      	mov	sp, r7
  20:	bd80      	pop	{r7, pc}
  22:	bf00      	nop

Disassembly of section .text._ZN9__gnu_cxx13new_allocatorISt4pairIKjP6BBInfoEE9constructEPS5_RKS5_:

00000000 <_ZN9__gnu_cxx13new_allocatorISt4pairIKjP6BBInfoEE9constructEPS5_RKS5_>:
   0:	b580      	push	{r7, lr}
   2:	b084      	sub	sp, #16
   4:	af00      	add	r7, sp, #0
   6:	60f8      	str	r0, [r7, #12]
   8:	60b9      	str	r1, [r7, #8]
   a:	607a      	str	r2, [r7, #4]
   c:	68bb      	ldr	r3, [r7, #8]
   e:	2008      	movs	r0, #8
  10:	4619      	mov	r1, r3
  12:	f7ff fffe 	bl	0 <_ZN9__gnu_cxx13new_allocatorISt4pairIKjP6BBInfoEE9constructEPS5_RKS5_>
  16:	4603      	mov	r3, r0
  18:	2b00      	cmp	r3, #0
  1a:	d004      	beq.n	26 <_ZN9__gnu_cxx13new_allocatorISt4pairIKjP6BBInfoEE9constructEPS5_RKS5_+0x26>
  1c:	687a      	ldr	r2, [r7, #4]
  1e:	e892 0003 	ldmia.w	r2, {r0, r1}
  22:	e883 0003 	stmia.w	r3, {r0, r1}
  26:	3710      	adds	r7, #16
  28:	46bd      	mov	sp, r7
  2a:	bd80      	pop	{r7, pc}

Disassembly of section .text._ZNKSt8_Rb_treeIjSt4pairIKjP6BBInfoESt10_Select1stIS4_ESt4lessIjESaIS4_EE21_M_get_Node_allocatorEv:

00000000 <_ZNKSt8_Rb_treeIjSt4pairIKjP6BBInfoESt10_Select1stIS4_ESt4lessIjESaIS4_EE21_M_get_Node_allocatorEv>:
   0:	b480      	push	{r7}
   2:	b083      	sub	sp, #12
   4:	af00      	add	r7, sp, #0
   6:	6078      	str	r0, [r7, #4]
   8:	687b      	ldr	r3, [r7, #4]
   a:	4618      	mov	r0, r3
   c:	370c      	adds	r7, #12
   e:	46bd      	mov	sp, r7
  10:	f85d 7b04 	ldr.w	r7, [sp], #4
  14:	4770      	bx	lr
  16:	bf00      	nop

Disassembly of section .text._ZNSaISt4pairIKjP6BBInfoEEC2ISt13_Rb_tree_nodeIS3_EEERKSaIT_E:

00000000 <_ZNSaISt4pairIKjP6BBInfoEEC1ISt13_Rb_tree_nodeIS3_EEERKSaIT_E>:
   0:	b580      	push	{r7, lr}
   2:	b082      	sub	sp, #8
   4:	af00      	add	r7, sp, #0
   6:	6078      	str	r0, [r7, #4]
   8:	6039      	str	r1, [r7, #0]
   a:	6878      	ldr	r0, [r7, #4]
   c:	f7ff fffe 	bl	0 <_ZNSaISt4pairIKjP6BBInfoEEC1ISt13_Rb_tree_nodeIS3_EEERKSaIT_E>
  10:	687b      	ldr	r3, [r7, #4]
  12:	4618      	mov	r0, r3
  14:	3708      	adds	r7, #8
  16:	46bd      	mov	sp, r7
  18:	bd80      	pop	{r7, pc}
  1a:	bf00      	nop

Disassembly of section .text._ZN9__gnu_cxx13new_allocatorISt4pairIKjP6BBInfoEED2Ev:

00000000 <_ZN9__gnu_cxx13new_allocatorISt4pairIKjP6BBInfoEED1Ev>:
   0:	b480      	push	{r7}
   2:	b083      	sub	sp, #12
   4:	af00      	add	r7, sp, #0
   6:	6078      	str	r0, [r7, #4]
   8:	687b      	ldr	r3, [r7, #4]
   a:	4618      	mov	r0, r3
   c:	370c      	adds	r7, #12
   e:	46bd      	mov	sp, r7
  10:	f85d 7b04 	ldr.w	r7, [sp], #4
  14:	4770      	bx	lr
  16:	bf00      	nop

Disassembly of section .text._ZSt11__addressofISt4pairIKjP6BBInfoEEPT_RS5_:

00000000 <_ZSt11__addressofISt4pairIKjP6BBInfoEEPT_RS5_>:
   0:	b480      	push	{r7}
   2:	b083      	sub	sp, #12
   4:	af00      	add	r7, sp, #0
   6:	6078      	str	r0, [r7, #4]
   8:	687b      	ldr	r3, [r7, #4]
   a:	4618      	mov	r0, r3
   c:	370c      	adds	r7, #12
   e:	46bd      	mov	sp, r7
  10:	f85d 7b04 	ldr.w	r7, [sp], #4
  14:	4770      	bx	lr
  16:	bf00      	nop

Disassembly of section .text._ZN9__gnu_cxx14__alloc_traitsISaISt13_Rb_tree_nodeISt4pairIKjP6BBInfoEEEE10deallocateERS8_PS7_j:

00000000 <_ZN9__gnu_cxx14__alloc_traitsISaISt13_Rb_tree_nodeISt4pairIKjP6BBInfoEEEE10deallocateERS8_PS7_j>:
   0:	b580      	push	{r7, lr}
   2:	b084      	sub	sp, #16
   4:	af00      	add	r7, sp, #0
   6:	60f8      	str	r0, [r7, #12]
   8:	60b9      	str	r1, [r7, #8]
   a:	607a      	str	r2, [r7, #4]
   c:	68f8      	ldr	r0, [r7, #12]
   e:	68b9      	ldr	r1, [r7, #8]
  10:	687a      	ldr	r2, [r7, #4]
  12:	f7ff fffe 	bl	0 <_ZN9__gnu_cxx14__alloc_traitsISaISt13_Rb_tree_nodeISt4pairIKjP6BBInfoEEEE10deallocateERS8_PS7_j>
  16:	3710      	adds	r7, #16
  18:	46bd      	mov	sp, r7
  1a:	bd80      	pop	{r7, pc}

Disassembly of section .text._ZNSt8_Rb_treeIjSt4pairIKjP6BBInfoESt10_Select1stIS4_ESt4lessIjESaIS4_EE21_M_get_Node_allocatorEv:

00000000 <_ZNSt8_Rb_treeIjSt4pairIKjP6BBInfoESt10_Select1stIS4_ESt4lessIjESaIS4_EE21_M_get_Node_allocatorEv>:
   0:	b480      	push	{r7}
   2:	b083      	sub	sp, #12
   4:	af00      	add	r7, sp, #0
   6:	6078      	str	r0, [r7, #4]
   8:	687b      	ldr	r3, [r7, #4]
   a:	4618      	mov	r0, r3
   c:	370c      	adds	r7, #12
   e:	46bd      	mov	sp, r7
  10:	f85d 7b04 	ldr.w	r7, [sp], #4
  14:	4770      	bx	lr
  16:	bf00      	nop

Disassembly of section .text._ZNKSt13_Rb_tree_nodeISt4pairIKjP6BBInfoEE9_M_valptrEv:

00000000 <_ZNKSt13_Rb_tree_nodeISt4pairIKjP6BBInfoEE9_M_valptrEv>:
   0:	b580      	push	{r7, lr}
   2:	b082      	sub	sp, #8
   4:	af00      	add	r7, sp, #0
   6:	6078      	str	r0, [r7, #4]
   8:	687b      	ldr	r3, [r7, #4]
   a:	3310      	adds	r3, #16
   c:	4618      	mov	r0, r3
   e:	f7ff fffe 	bl	0 <_ZNKSt13_Rb_tree_nodeISt4pairIKjP6BBInfoEE9_M_valptrEv>
  12:	4603      	mov	r3, r0
  14:	4618      	mov	r0, r3
  16:	3708      	adds	r7, #8
  18:	46bd      	mov	sp, r7
  1a:	bd80      	pop	{r7, pc}

Disassembly of section .text._ZN9__gnu_cxx14__alloc_traitsISaISt13_Rb_tree_nodeISt4pairIKjP6BBInfoEEEE8allocateERS8_j:

00000000 <_ZN9__gnu_cxx14__alloc_traitsISaISt13_Rb_tree_nodeISt4pairIKjP6BBInfoEEEE8allocateERS8_j>:
   0:	b580      	push	{r7, lr}
   2:	b082      	sub	sp, #8
   4:	af00      	add	r7, sp, #0
   6:	6078      	str	r0, [r7, #4]
   8:	6039      	str	r1, [r7, #0]
   a:	6878      	ldr	r0, [r7, #4]
   c:	6839      	ldr	r1, [r7, #0]
   e:	2200      	movs	r2, #0
  10:	f7ff fffe 	bl	0 <_ZN9__gnu_cxx14__alloc_traitsISaISt13_Rb_tree_nodeISt4pairIKjP6BBInfoEEEE8allocateERS8_j>
  14:	4603      	mov	r3, r0
  16:	4618      	mov	r0, r3
  18:	3708      	adds	r7, #8
  1a:	46bd      	mov	sp, r7
  1c:	bd80      	pop	{r7, pc}
  1e:	bf00      	nop

Disassembly of section .text._ZN9__gnu_cxx13new_allocatorISt4pairIKjP6BBInfoEEC2Ev:

00000000 <_ZN9__gnu_cxx13new_allocatorISt4pairIKjP6BBInfoEEC1Ev>:
   0:	b480      	push	{r7}
   2:	b083      	sub	sp, #12
   4:	af00      	add	r7, sp, #0
   6:	6078      	str	r0, [r7, #4]
   8:	687b      	ldr	r3, [r7, #4]
   a:	4618      	mov	r0, r3
   c:	370c      	adds	r7, #12
   e:	46bd      	mov	sp, r7
  10:	f85d 7b04 	ldr.w	r7, [sp], #4
  14:	4770      	bx	lr
  16:	bf00      	nop

Disassembly of section .text._ZN9__gnu_cxx13new_allocatorISt13_Rb_tree_nodeISt4pairIKjP6BBInfoEEE10deallocateEPS7_j:

00000000 <_ZN9__gnu_cxx13new_allocatorISt13_Rb_tree_nodeISt4pairIKjP6BBInfoEEE10deallocateEPS7_j>:
   0:	b580      	push	{r7, lr}
   2:	b084      	sub	sp, #16
   4:	af00      	add	r7, sp, #0
   6:	60f8      	str	r0, [r7, #12]
   8:	60b9      	str	r1, [r7, #8]
   a:	607a      	str	r2, [r7, #4]
   c:	68b8      	ldr	r0, [r7, #8]
   e:	f7ff fffe 	bl	0 <_ZdlPv>
  12:	3710      	adds	r7, #16
  14:	46bd      	mov	sp, r7
  16:	bd80      	pop	{r7, pc}

Disassembly of section .text._ZSt11__addressofIKSt4pairIKjP6BBInfoEEPT_RS6_:

00000000 <_ZSt11__addressofIKSt4pairIKjP6BBInfoEEPT_RS6_>:
   0:	b480      	push	{r7}
   2:	b083      	sub	sp, #12
   4:	af00      	add	r7, sp, #0
   6:	6078      	str	r0, [r7, #4]
   8:	687b      	ldr	r3, [r7, #4]
   a:	4618      	mov	r0, r3
   c:	370c      	adds	r7, #12
   e:	46bd      	mov	sp, r7
  10:	f85d 7b04 	ldr.w	r7, [sp], #4
  14:	4770      	bx	lr
  16:	bf00      	nop

Disassembly of section .text._ZN9__gnu_cxx13new_allocatorISt13_Rb_tree_nodeISt4pairIKjP6BBInfoEEE8allocateEjPKv:

00000000 <_ZN9__gnu_cxx13new_allocatorISt13_Rb_tree_nodeISt4pairIKjP6BBInfoEEE8allocateEjPKv>:
   0:	b580      	push	{r7, lr}
   2:	b084      	sub	sp, #16
   4:	af00      	add	r7, sp, #0
   6:	60f8      	str	r0, [r7, #12]
   8:	60b9      	str	r1, [r7, #8]
   a:	607a      	str	r2, [r7, #4]
   c:	68f8      	ldr	r0, [r7, #12]
   e:	f7ff fffe 	bl	0 <_ZN9__gnu_cxx13new_allocatorISt13_Rb_tree_nodeISt4pairIKjP6BBInfoEEE8allocateEjPKv>
  12:	4602      	mov	r2, r0
  14:	68bb      	ldr	r3, [r7, #8]
  16:	429a      	cmp	r2, r3
  18:	bf34      	ite	cc
  1a:	2301      	movcc	r3, #1
  1c:	2300      	movcs	r3, #0
  1e:	b2db      	uxtb	r3, r3
  20:	2b00      	cmp	r3, #0
  22:	d001      	beq.n	28 <_ZN9__gnu_cxx13new_allocatorISt13_Rb_tree_nodeISt4pairIKjP6BBInfoEEE8allocateEjPKv+0x28>
  24:	f7ff fffe 	bl	0 <_ZSt17__throw_bad_allocv>
  28:	68ba      	ldr	r2, [r7, #8]
  2a:	4613      	mov	r3, r2
  2c:	005b      	lsls	r3, r3, #1
  2e:	4413      	add	r3, r2
  30:	00db      	lsls	r3, r3, #3
  32:	4618      	mov	r0, r3
  34:	f7ff fffe 	bl	0 <_Znwj>
  38:	4603      	mov	r3, r0
  3a:	4618      	mov	r0, r3
  3c:	3710      	adds	r7, #16
  3e:	46bd      	mov	sp, r7
  40:	bd80      	pop	{r7, pc}
  42:	bf00      	nop

Disassembly of section .text._ZNK9__gnu_cxx13new_allocatorISt13_Rb_tree_nodeISt4pairIKjP6BBInfoEEE8max_sizeEv:

00000000 <_ZNK9__gnu_cxx13new_allocatorISt13_Rb_tree_nodeISt4pairIKjP6BBInfoEEE8max_sizeEv>:
   0:	b480      	push	{r7}
   2:	b083      	sub	sp, #12
   4:	af00      	add	r7, sp, #0
   6:	6078      	str	r0, [r7, #4]
   8:	4b03      	ldr	r3, [pc, #12]	; (18 <_ZNK9__gnu_cxx13new_allocatorISt13_Rb_tree_nodeISt4pairIKjP6BBInfoEEE8max_sizeEv+0x18>)
   a:	4618      	mov	r0, r3
   c:	370c      	adds	r7, #12
   e:	46bd      	mov	sp, r7
  10:	f85d 7b04 	ldr.w	r7, [sp], #4
  14:	4770      	bx	lr
  16:	bf00      	nop
  18:	0aaaaaaa 	.word	0x0aaaaaaa
